
STM_Snake.elf:     file format elf32-littlearm

Sections:
Idx Name          Size      VMA       LMA       File off  Algn
  0 .isr_vector   000000c0  08000000  08000000  00001000  2**0
                  CONTENTS, ALLOC, LOAD, READONLY, DATA
  1 .text         00003060  080000c0  080000c0  000010c0  2**2
                  CONTENTS, ALLOC, LOAD, READONLY, CODE
  2 .rodata       00000038  08003120  08003120  00004120  2**2
                  CONTENTS, ALLOC, LOAD, READONLY, DATA
  3 .ARM.extab    00000000  08003158  08003158  0000500c  2**0
                  CONTENTS
  4 .ARM          00000000  08003158  08003158  0000500c  2**0
                  CONTENTS
  5 .preinit_array 00000000  08003158  08003158  0000500c  2**0
                  CONTENTS, ALLOC, LOAD, DATA
  6 .init_array   00000004  08003158  08003158  00004158  2**2
                  CONTENTS, ALLOC, LOAD, READONLY, DATA
  7 .fini_array   00000004  0800315c  0800315c  0000415c  2**2
                  CONTENTS, ALLOC, LOAD, READONLY, DATA
  8 .data         0000000c  20000000  08003160  00005000  2**2
                  CONTENTS, ALLOC, LOAD, DATA
  9 .bss          000000f4  2000000c  0800316c  0000500c  2**2
                  ALLOC
 10 ._user_heap_stack 00000600  20000100  0800316c  00005100  2**0
                  ALLOC
 11 .ARM.attributes 00000028  00000000  00000000  0000500c  2**0
                  CONTENTS, READONLY
 12 .debug_info   0000927d  00000000  00000000  00005034  2**0
                  CONTENTS, READONLY, DEBUGGING, OCTETS
 13 .debug_abbrev 00001ab1  00000000  00000000  0000e2b1  2**0
                  CONTENTS, READONLY, DEBUGGING, OCTETS
 14 .debug_aranges 00000720  00000000  00000000  0000fd68  2**3
                  CONTENTS, READONLY, DEBUGGING, OCTETS
 15 .debug_rnglists 00000575  00000000  00000000  00010488  2**0
                  CONTENTS, READONLY, DEBUGGING, OCTETS
 16 .debug_macro  00011b51  00000000  00000000  000109fd  2**0
                  CONTENTS, READONLY, DEBUGGING, OCTETS
 17 .debug_line   0000a6ec  00000000  00000000  0002254e  2**0
                  CONTENTS, READONLY, DEBUGGING, OCTETS
 18 .debug_str    00068a01  00000000  00000000  0002cc3a  2**0
                  CONTENTS, READONLY, DEBUGGING, OCTETS
 19 .comment      00000086  00000000  00000000  0009563b  2**0
                  CONTENTS, READONLY
 20 .debug_frame  000017dc  00000000  00000000  000956c4  2**2
                  CONTENTS, READONLY, DEBUGGING, OCTETS
 21 .debug_line_str 0000004a  00000000  00000000  00096ea0  2**0
                  CONTENTS, READONLY, DEBUGGING, OCTETS

Disassembly of section .text:

080000c0 <__do_global_dtors_aux>:
 80000c0:	b510      	push	{r4, lr}
 80000c2:	4c06      	ldr	r4, [pc, #24]	@ (80000dc <__do_global_dtors_aux+0x1c>)
 80000c4:	7823      	ldrb	r3, [r4, #0]
 80000c6:	2b00      	cmp	r3, #0
 80000c8:	d107      	bne.n	80000da <__do_global_dtors_aux+0x1a>
 80000ca:	4b05      	ldr	r3, [pc, #20]	@ (80000e0 <__do_global_dtors_aux+0x20>)
 80000cc:	2b00      	cmp	r3, #0
 80000ce:	d002      	beq.n	80000d6 <__do_global_dtors_aux+0x16>
 80000d0:	4804      	ldr	r0, [pc, #16]	@ (80000e4 <__do_global_dtors_aux+0x24>)
 80000d2:	e000      	b.n	80000d6 <__do_global_dtors_aux+0x16>
 80000d4:	bf00      	nop
 80000d6:	2301      	movs	r3, #1
 80000d8:	7023      	strb	r3, [r4, #0]
 80000da:	bd10      	pop	{r4, pc}
 80000dc:	2000000c 	.word	0x2000000c
 80000e0:	00000000 	.word	0x00000000
 80000e4:	08003108 	.word	0x08003108

080000e8 <frame_dummy>:
 80000e8:	4b04      	ldr	r3, [pc, #16]	@ (80000fc <frame_dummy+0x14>)
 80000ea:	b510      	push	{r4, lr}
 80000ec:	2b00      	cmp	r3, #0
 80000ee:	d003      	beq.n	80000f8 <frame_dummy+0x10>
 80000f0:	4903      	ldr	r1, [pc, #12]	@ (8000100 <frame_dummy+0x18>)
 80000f2:	4804      	ldr	r0, [pc, #16]	@ (8000104 <frame_dummy+0x1c>)
 80000f4:	e000      	b.n	80000f8 <frame_dummy+0x10>
 80000f6:	bf00      	nop
 80000f8:	bd10      	pop	{r4, pc}
 80000fa:	46c0      	nop			@ (mov r8, r8)
 80000fc:	00000000 	.word	0x00000000
 8000100:	20000010 	.word	0x20000010
 8000104:	08003108 	.word	0x08003108

08000108 <__udivsi3>:
 8000108:	2200      	movs	r2, #0
 800010a:	0843      	lsrs	r3, r0, #1
 800010c:	428b      	cmp	r3, r1
 800010e:	d374      	bcc.n	80001fa <__udivsi3+0xf2>
 8000110:	0903      	lsrs	r3, r0, #4
 8000112:	428b      	cmp	r3, r1
 8000114:	d35f      	bcc.n	80001d6 <__udivsi3+0xce>
 8000116:	0a03      	lsrs	r3, r0, #8
 8000118:	428b      	cmp	r3, r1
 800011a:	d344      	bcc.n	80001a6 <__udivsi3+0x9e>
 800011c:	0b03      	lsrs	r3, r0, #12
 800011e:	428b      	cmp	r3, r1
 8000120:	d328      	bcc.n	8000174 <__udivsi3+0x6c>
 8000122:	0c03      	lsrs	r3, r0, #16
 8000124:	428b      	cmp	r3, r1
 8000126:	d30d      	bcc.n	8000144 <__udivsi3+0x3c>
 8000128:	22ff      	movs	r2, #255	@ 0xff
 800012a:	0209      	lsls	r1, r1, #8
 800012c:	ba12      	rev	r2, r2
 800012e:	0c03      	lsrs	r3, r0, #16
 8000130:	428b      	cmp	r3, r1
 8000132:	d302      	bcc.n	800013a <__udivsi3+0x32>
 8000134:	1212      	asrs	r2, r2, #8
 8000136:	0209      	lsls	r1, r1, #8
 8000138:	d065      	beq.n	8000206 <__udivsi3+0xfe>
 800013a:	0b03      	lsrs	r3, r0, #12
 800013c:	428b      	cmp	r3, r1
 800013e:	d319      	bcc.n	8000174 <__udivsi3+0x6c>
 8000140:	e000      	b.n	8000144 <__udivsi3+0x3c>
 8000142:	0a09      	lsrs	r1, r1, #8
 8000144:	0bc3      	lsrs	r3, r0, #15
 8000146:	428b      	cmp	r3, r1
 8000148:	d301      	bcc.n	800014e <__udivsi3+0x46>
 800014a:	03cb      	lsls	r3, r1, #15
 800014c:	1ac0      	subs	r0, r0, r3
 800014e:	4152      	adcs	r2, r2
 8000150:	0b83      	lsrs	r3, r0, #14
 8000152:	428b      	cmp	r3, r1
 8000154:	d301      	bcc.n	800015a <__udivsi3+0x52>
 8000156:	038b      	lsls	r3, r1, #14
 8000158:	1ac0      	subs	r0, r0, r3
 800015a:	4152      	adcs	r2, r2
 800015c:	0b43      	lsrs	r3, r0, #13
 800015e:	428b      	cmp	r3, r1
 8000160:	d301      	bcc.n	8000166 <__udivsi3+0x5e>
 8000162:	034b      	lsls	r3, r1, #13
 8000164:	1ac0      	subs	r0, r0, r3
 8000166:	4152      	adcs	r2, r2
 8000168:	0b03      	lsrs	r3, r0, #12
 800016a:	428b      	cmp	r3, r1
 800016c:	d301      	bcc.n	8000172 <__udivsi3+0x6a>
 800016e:	030b      	lsls	r3, r1, #12
 8000170:	1ac0      	subs	r0, r0, r3
 8000172:	4152      	adcs	r2, r2
 8000174:	0ac3      	lsrs	r3, r0, #11
 8000176:	428b      	cmp	r3, r1
 8000178:	d301      	bcc.n	800017e <__udivsi3+0x76>
 800017a:	02cb      	lsls	r3, r1, #11
 800017c:	1ac0      	subs	r0, r0, r3
 800017e:	4152      	adcs	r2, r2
 8000180:	0a83      	lsrs	r3, r0, #10
 8000182:	428b      	cmp	r3, r1
 8000184:	d301      	bcc.n	800018a <__udivsi3+0x82>
 8000186:	028b      	lsls	r3, r1, #10
 8000188:	1ac0      	subs	r0, r0, r3
 800018a:	4152      	adcs	r2, r2
 800018c:	0a43      	lsrs	r3, r0, #9
 800018e:	428b      	cmp	r3, r1
 8000190:	d301      	bcc.n	8000196 <__udivsi3+0x8e>
 8000192:	024b      	lsls	r3, r1, #9
 8000194:	1ac0      	subs	r0, r0, r3
 8000196:	4152      	adcs	r2, r2
 8000198:	0a03      	lsrs	r3, r0, #8
 800019a:	428b      	cmp	r3, r1
 800019c:	d301      	bcc.n	80001a2 <__udivsi3+0x9a>
 800019e:	020b      	lsls	r3, r1, #8
 80001a0:	1ac0      	subs	r0, r0, r3
 80001a2:	4152      	adcs	r2, r2
 80001a4:	d2cd      	bcs.n	8000142 <__udivsi3+0x3a>
 80001a6:	09c3      	lsrs	r3, r0, #7
 80001a8:	428b      	cmp	r3, r1
 80001aa:	d301      	bcc.n	80001b0 <__udivsi3+0xa8>
 80001ac:	01cb      	lsls	r3, r1, #7
 80001ae:	1ac0      	subs	r0, r0, r3
 80001b0:	4152      	adcs	r2, r2
 80001b2:	0983      	lsrs	r3, r0, #6
 80001b4:	428b      	cmp	r3, r1
 80001b6:	d301      	bcc.n	80001bc <__udivsi3+0xb4>
 80001b8:	018b      	lsls	r3, r1, #6
 80001ba:	1ac0      	subs	r0, r0, r3
 80001bc:	4152      	adcs	r2, r2
 80001be:	0943      	lsrs	r3, r0, #5
 80001c0:	428b      	cmp	r3, r1
 80001c2:	d301      	bcc.n	80001c8 <__udivsi3+0xc0>
 80001c4:	014b      	lsls	r3, r1, #5
 80001c6:	1ac0      	subs	r0, r0, r3
 80001c8:	4152      	adcs	r2, r2
 80001ca:	0903      	lsrs	r3, r0, #4
 80001cc:	428b      	cmp	r3, r1
 80001ce:	d301      	bcc.n	80001d4 <__udivsi3+0xcc>
 80001d0:	010b      	lsls	r3, r1, #4
 80001d2:	1ac0      	subs	r0, r0, r3
 80001d4:	4152      	adcs	r2, r2
 80001d6:	08c3      	lsrs	r3, r0, #3
 80001d8:	428b      	cmp	r3, r1
 80001da:	d301      	bcc.n	80001e0 <__udivsi3+0xd8>
 80001dc:	00cb      	lsls	r3, r1, #3
 80001de:	1ac0      	subs	r0, r0, r3
 80001e0:	4152      	adcs	r2, r2
 80001e2:	0883      	lsrs	r3, r0, #2
 80001e4:	428b      	cmp	r3, r1
 80001e6:	d301      	bcc.n	80001ec <__udivsi3+0xe4>
 80001e8:	008b      	lsls	r3, r1, #2
 80001ea:	1ac0      	subs	r0, r0, r3
 80001ec:	4152      	adcs	r2, r2
 80001ee:	0843      	lsrs	r3, r0, #1
 80001f0:	428b      	cmp	r3, r1
 80001f2:	d301      	bcc.n	80001f8 <__udivsi3+0xf0>
 80001f4:	004b      	lsls	r3, r1, #1
 80001f6:	1ac0      	subs	r0, r0, r3
 80001f8:	4152      	adcs	r2, r2
 80001fa:	1a41      	subs	r1, r0, r1
 80001fc:	d200      	bcs.n	8000200 <__udivsi3+0xf8>
 80001fe:	4601      	mov	r1, r0
 8000200:	4152      	adcs	r2, r2
 8000202:	4610      	mov	r0, r2
 8000204:	4770      	bx	lr
 8000206:	e7ff      	b.n	8000208 <__udivsi3+0x100>
 8000208:	b501      	push	{r0, lr}
 800020a:	2000      	movs	r0, #0
 800020c:	f000 f806 	bl	800021c <__aeabi_idiv0>
 8000210:	bd02      	pop	{r1, pc}
 8000212:	46c0      	nop			@ (mov r8, r8)

08000214 <__aeabi_uidivmod>:
 8000214:	2900      	cmp	r1, #0
 8000216:	d0f7      	beq.n	8000208 <__udivsi3+0x100>
 8000218:	e776      	b.n	8000108 <__udivsi3>
 800021a:	4770      	bx	lr

0800021c <__aeabi_idiv0>:
 800021c:	4770      	bx	lr
 800021e:	46c0      	nop			@ (mov r8, r8)

08000220 <main>:
/**
  * @brief  The application entry point.
  * @retval int
  */
int main(void)
{
 8000220:	b580      	push	{r7, lr}
 8000222:	af00      	add	r7, sp, #0
  /* USER CODE END 1 */

  /* MCU Configuration--------------------------------------------------------*/

  /* Reset of all peripherals, Initializes the Flash interface and the Systick. */
  HAL_Init();
 8000224:	f000 fb52 	bl	80008cc <HAL_Init>
  /* USER CODE BEGIN Init */

  /* USER CODE END Init */

  /* Configure the system clock */
  SystemClock_Config();
 8000228:	f000 f812 	bl	8000250 <SystemClock_Config>
  /* USER CODE BEGIN SysInit */

  /* USER CODE END SysInit */

  /* Initialize all configured peripherals */
  MX_GPIO_Init();
 800022c:	f000 f8be 	bl	80003ac <MX_GPIO_Init>
  MX_DMA_Init();
 8000230:	f000 f89e 	bl	8000370 <MX_DMA_Init>
  MX_USART1_UART_Init();
 8000234:	f000 f86c 	bl	8000310 <MX_USART1_UART_Init>
  /* USER CODE BEGIN 2 */
  HAL_UART_Receive_DMA(&huart1,frame,sizeof(frame));
 8000238:	4903      	ldr	r1, [pc, #12]	@ (8000248 <main+0x28>)
 800023a:	4b04      	ldr	r3, [pc, #16]	@ (800024c <main+0x2c>)
 800023c:	2205      	movs	r2, #5
 800023e:	0018      	movs	r0, r3
 8000240:	f001 fe59 	bl	8001ef6 <HAL_UART_Receive_DMA>
  /* USER CODE END 2 */

  /* Infinite loop */
  /* USER CODE BEGIN WHILE */
  while (1)
 8000244:	46c0      	nop			@ (mov r8, r8)
 8000246:	e7fd      	b.n	8000244 <main+0x24>
 8000248:	200000f4 	.word	0x200000f4
 800024c:	20000028 	.word	0x20000028

08000250 <SystemClock_Config>:
/**
  * @brief System Clock Configuration
  * @retval None
  */
void SystemClock_Config(void)
{
 8000250:	b590      	push	{r4, r7, lr}
 8000252:	b097      	sub	sp, #92	@ 0x5c
 8000254:	af00      	add	r7, sp, #0
  RCC_OscInitTypeDef RCC_OscInitStruct = {0};
 8000256:	2428      	movs	r4, #40	@ 0x28
 8000258:	193b      	adds	r3, r7, r4
 800025a:	0018      	movs	r0, r3
 800025c:	2330      	movs	r3, #48	@ 0x30
 800025e:	001a      	movs	r2, r3
 8000260:	2100      	movs	r1, #0
 8000262:	f002 ff1a 	bl	800309a <memset>
  RCC_ClkInitTypeDef RCC_ClkInitStruct = {0};
 8000266:	2318      	movs	r3, #24
 8000268:	18fb      	adds	r3, r7, r3
 800026a:	0018      	movs	r0, r3
 800026c:	2310      	movs	r3, #16
 800026e:	001a      	movs	r2, r3
 8000270:	2100      	movs	r1, #0
 8000272:	f002 ff12 	bl	800309a <memset>
  RCC_PeriphCLKInitTypeDef PeriphClkInit = {0};
 8000276:	1d3b      	adds	r3, r7, #4
 8000278:	0018      	movs	r0, r3
 800027a:	2314      	movs	r3, #20
 800027c:	001a      	movs	r2, r3
 800027e:	2100      	movs	r1, #0
 8000280:	f002 ff0b 	bl	800309a <memset>

  /** Initializes the RCC Oscillators according to the specified parameters
  * in the RCC_OscInitTypeDef structure.
  */
  RCC_OscInitStruct.OscillatorType = RCC_OSCILLATORTYPE_HSE;
 8000284:	0021      	movs	r1, r4
 8000286:	187b      	adds	r3, r7, r1
 8000288:	2201      	movs	r2, #1
 800028a:	601a      	str	r2, [r3, #0]
  RCC_OscInitStruct.HSEState = RCC_HSE_ON;
 800028c:	187b      	adds	r3, r7, r1
 800028e:	2201      	movs	r2, #1
 8000290:	605a      	str	r2, [r3, #4]
  RCC_OscInitStruct.PLL.PLLState = RCC_PLL_ON;
 8000292:	187b      	adds	r3, r7, r1
 8000294:	2202      	movs	r2, #2
 8000296:	621a      	str	r2, [r3, #32]
  RCC_OscInitStruct.PLL.PLLSource = RCC_PLLSOURCE_HSE;
 8000298:	187b      	adds	r3, r7, r1
 800029a:	2280      	movs	r2, #128	@ 0x80
 800029c:	0252      	lsls	r2, r2, #9
 800029e:	625a      	str	r2, [r3, #36]	@ 0x24
  RCC_OscInitStruct.PLL.PLLMUL = RCC_PLL_MUL6;
 80002a0:	187b      	adds	r3, r7, r1
 80002a2:	2280      	movs	r2, #128	@ 0x80
 80002a4:	0352      	lsls	r2, r2, #13
 80002a6:	629a      	str	r2, [r3, #40]	@ 0x28
  RCC_OscInitStruct.PLL.PREDIV = RCC_PREDIV_DIV1;
 80002a8:	187b      	adds	r3, r7, r1
 80002aa:	2200      	movs	r2, #0
 80002ac:	62da      	str	r2, [r3, #44]	@ 0x2c
  if (HAL_RCC_OscConfig(&RCC_OscInitStruct) != HAL_OK)
 80002ae:	187b      	adds	r3, r7, r1
 80002b0:	0018      	movs	r0, r3
 80002b2:	f000 fff1 	bl	8001298 <HAL_RCC_OscConfig>
 80002b6:	1e03      	subs	r3, r0, #0
 80002b8:	d001      	beq.n	80002be <SystemClock_Config+0x6e>
  {
    Error_Handler();
 80002ba:	f000 f909 	bl	80004d0 <Error_Handler>
  }

  /** Initializes the CPU, AHB and APB buses clocks
  */
  RCC_ClkInitStruct.ClockType = RCC_CLOCKTYPE_HCLK|RCC_CLOCKTYPE_SYSCLK
 80002be:	2118      	movs	r1, #24
 80002c0:	187b      	adds	r3, r7, r1
 80002c2:	2207      	movs	r2, #7
 80002c4:	601a      	str	r2, [r3, #0]
                              |RCC_CLOCKTYPE_PCLK1;
  RCC_ClkInitStruct.SYSCLKSource = RCC_SYSCLKSOURCE_PLLCLK;
 80002c6:	187b      	adds	r3, r7, r1
 80002c8:	2202      	movs	r2, #2
 80002ca:	605a      	str	r2, [r3, #4]
  RCC_ClkInitStruct.AHBCLKDivider = RCC_SYSCLK_DIV1;
 80002cc:	187b      	adds	r3, r7, r1
 80002ce:	2200      	movs	r2, #0
 80002d0:	609a      	str	r2, [r3, #8]
  RCC_ClkInitStruct.APB1CLKDivider = RCC_HCLK_DIV1;
 80002d2:	187b      	adds	r3, r7, r1
 80002d4:	2200      	movs	r2, #0
 80002d6:	60da      	str	r2, [r3, #12]

  if (HAL_RCC_ClockConfig(&RCC_ClkInitStruct, FLASH_LATENCY_1) != HAL_OK)
 80002d8:	187b      	adds	r3, r7, r1
 80002da:	2101      	movs	r1, #1
 80002dc:	0018      	movs	r0, r3
 80002de:	f001 faf5 	bl	80018cc <HAL_RCC_ClockConfig>
 80002e2:	1e03      	subs	r3, r0, #0
 80002e4:	d001      	beq.n	80002ea <SystemClock_Config+0x9a>
  {
    Error_Handler();
 80002e6:	f000 f8f3 	bl	80004d0 <Error_Handler>
  }
  PeriphClkInit.PeriphClockSelection = RCC_PERIPHCLK_USART1;
 80002ea:	1d3b      	adds	r3, r7, #4
 80002ec:	2201      	movs	r2, #1
 80002ee:	601a      	str	r2, [r3, #0]
  PeriphClkInit.Usart1ClockSelection = RCC_USART1CLKSOURCE_PCLK1;
 80002f0:	1d3b      	adds	r3, r7, #4
 80002f2:	2200      	movs	r2, #0
 80002f4:	609a      	str	r2, [r3, #8]
  if (HAL_RCCEx_PeriphCLKConfig(&PeriphClkInit) != HAL_OK)
 80002f6:	1d3b      	adds	r3, r7, #4
 80002f8:	0018      	movs	r0, r3
 80002fa:	f001 fc2b 	bl	8001b54 <HAL_RCCEx_PeriphCLKConfig>
 80002fe:	1e03      	subs	r3, r0, #0
 8000300:	d001      	beq.n	8000306 <SystemClock_Config+0xb6>
  {
    Error_Handler();
 8000302:	f000 f8e5 	bl	80004d0 <Error_Handler>
  }
}
 8000306:	46c0      	nop			@ (mov r8, r8)
 8000308:	46bd      	mov	sp, r7
 800030a:	b017      	add	sp, #92	@ 0x5c
 800030c:	bd90      	pop	{r4, r7, pc}
	...

08000310 <MX_USART1_UART_Init>:
  * @brief USART1 Initialization Function
  * @param None
  * @retval None
  */
static void MX_USART1_UART_Init(void)
{
 8000310:	b580      	push	{r7, lr}
 8000312:	af00      	add	r7, sp, #0
  /* USER CODE END USART1_Init 0 */

  /* USER CODE BEGIN USART1_Init 1 */

  /* USER CODE END USART1_Init 1 */
  huart1.Instance = USART1;
 8000314:	4b14      	ldr	r3, [pc, #80]	@ (8000368 <MX_USART1_UART_Init+0x58>)
 8000316:	4a15      	ldr	r2, [pc, #84]	@ (800036c <MX_USART1_UART_Init+0x5c>)
 8000318:	601a      	str	r2, [r3, #0]
  huart1.Init.BaudRate = 9600;
 800031a:	4b13      	ldr	r3, [pc, #76]	@ (8000368 <MX_USART1_UART_Init+0x58>)
 800031c:	2296      	movs	r2, #150	@ 0x96
 800031e:	0192      	lsls	r2, r2, #6
 8000320:	605a      	str	r2, [r3, #4]
  huart1.Init.WordLength = UART_WORDLENGTH_8B;
 8000322:	4b11      	ldr	r3, [pc, #68]	@ (8000368 <MX_USART1_UART_Init+0x58>)
 8000324:	2200      	movs	r2, #0
 8000326:	609a      	str	r2, [r3, #8]
  huart1.Init.StopBits = UART_STOPBITS_1;
 8000328:	4b0f      	ldr	r3, [pc, #60]	@ (8000368 <MX_USART1_UART_Init+0x58>)
 800032a:	2200      	movs	r2, #0
 800032c:	60da      	str	r2, [r3, #12]
  huart1.Init.Parity = UART_PARITY_NONE;
 800032e:	4b0e      	ldr	r3, [pc, #56]	@ (8000368 <MX_USART1_UART_Init+0x58>)
 8000330:	2200      	movs	r2, #0
 8000332:	611a      	str	r2, [r3, #16]
  huart1.Init.Mode = UART_MODE_TX_RX;
 8000334:	4b0c      	ldr	r3, [pc, #48]	@ (8000368 <MX_USART1_UART_Init+0x58>)
 8000336:	220c      	movs	r2, #12
 8000338:	615a      	str	r2, [r3, #20]
  huart1.Init.HwFlowCtl = UART_HWCONTROL_NONE;
 800033a:	4b0b      	ldr	r3, [pc, #44]	@ (8000368 <MX_USART1_UART_Init+0x58>)
 800033c:	2200      	movs	r2, #0
 800033e:	619a      	str	r2, [r3, #24]
  huart1.Init.OverSampling = UART_OVERSAMPLING_16;
 8000340:	4b09      	ldr	r3, [pc, #36]	@ (8000368 <MX_USART1_UART_Init+0x58>)
 8000342:	2200      	movs	r2, #0
 8000344:	61da      	str	r2, [r3, #28]
  huart1.Init.OneBitSampling = UART_ONE_BIT_SAMPLE_DISABLE;
 8000346:	4b08      	ldr	r3, [pc, #32]	@ (8000368 <MX_USART1_UART_Init+0x58>)
 8000348:	2200      	movs	r2, #0
 800034a:	621a      	str	r2, [r3, #32]
  huart1.AdvancedInit.AdvFeatureInit = UART_ADVFEATURE_NO_INIT;
 800034c:	4b06      	ldr	r3, [pc, #24]	@ (8000368 <MX_USART1_UART_Init+0x58>)
 800034e:	2200      	movs	r2, #0
 8000350:	625a      	str	r2, [r3, #36]	@ 0x24
  if (HAL_UART_Init(&huart1) != HAL_OK)
 8000352:	4b05      	ldr	r3, [pc, #20]	@ (8000368 <MX_USART1_UART_Init+0x58>)
 8000354:	0018      	movs	r0, r3
 8000356:	f001 fcdb 	bl	8001d10 <HAL_UART_Init>
 800035a:	1e03      	subs	r3, r0, #0
 800035c:	d001      	beq.n	8000362 <MX_USART1_UART_Init+0x52>
  {
    Error_Handler();
 800035e:	f000 f8b7 	bl	80004d0 <Error_Handler>
  }
  /* USER CODE BEGIN USART1_Init 2 */

  /* USER CODE END USART1_Init 2 */

}
 8000362:	46c0      	nop			@ (mov r8, r8)
 8000364:	46bd      	mov	sp, r7
 8000366:	bd80      	pop	{r7, pc}
 8000368:	20000028 	.word	0x20000028
 800036c:	40013800 	.word	0x40013800

08000370 <MX_DMA_Init>:

/**
  * Enable DMA controller clock
  */
static void MX_DMA_Init(void)
{
 8000370:	b580      	push	{r7, lr}
 8000372:	b082      	sub	sp, #8
 8000374:	af00      	add	r7, sp, #0

  /* DMA controller clock enable */
  __HAL_RCC_DMA1_CLK_ENABLE();
 8000376:	4b0c      	ldr	r3, [pc, #48]	@ (80003a8 <MX_DMA_Init+0x38>)
 8000378:	695a      	ldr	r2, [r3, #20]
 800037a:	4b0b      	ldr	r3, [pc, #44]	@ (80003a8 <MX_DMA_Init+0x38>)
 800037c:	2101      	movs	r1, #1
 800037e:	430a      	orrs	r2, r1
 8000380:	615a      	str	r2, [r3, #20]
 8000382:	4b09      	ldr	r3, [pc, #36]	@ (80003a8 <MX_DMA_Init+0x38>)
 8000384:	695b      	ldr	r3, [r3, #20]
 8000386:	2201      	movs	r2, #1
 8000388:	4013      	ands	r3, r2
 800038a:	607b      	str	r3, [r7, #4]
 800038c:	687b      	ldr	r3, [r7, #4]

  /* DMA interrupt init */
  /* DMA1_Channel2_3_IRQn interrupt configuration */
  HAL_NVIC_SetPriority(DMA1_Channel2_3_IRQn, 0, 0);
 800038e:	2200      	movs	r2, #0
 8000390:	2100      	movs	r1, #0
 8000392:	200a      	movs	r0, #10
 8000394:	f000 fbaa 	bl	8000aec <HAL_NVIC_SetPriority>
  HAL_NVIC_EnableIRQ(DMA1_Channel2_3_IRQn);
 8000398:	200a      	movs	r0, #10
 800039a:	f000 fbbc 	bl	8000b16 <HAL_NVIC_EnableIRQ>

}
 800039e:	46c0      	nop			@ (mov r8, r8)
 80003a0:	46bd      	mov	sp, r7
 80003a2:	b002      	add	sp, #8
 80003a4:	bd80      	pop	{r7, pc}
 80003a6:	46c0      	nop			@ (mov r8, r8)
 80003a8:	40021000 	.word	0x40021000

080003ac <MX_GPIO_Init>:
  * @brief GPIO Initialization Function
  * @param None
  * @retval None
  */
static void MX_GPIO_Init(void)
{
 80003ac:	b590      	push	{r4, r7, lr}
 80003ae:	b089      	sub	sp, #36	@ 0x24
 80003b0:	af00      	add	r7, sp, #0
  GPIO_InitTypeDef GPIO_InitStruct = {0};
 80003b2:	240c      	movs	r4, #12
 80003b4:	193b      	adds	r3, r7, r4
 80003b6:	0018      	movs	r0, r3
 80003b8:	2314      	movs	r3, #20
 80003ba:	001a      	movs	r2, r3
 80003bc:	2100      	movs	r1, #0
 80003be:	f002 fe6c 	bl	800309a <memset>
/* USER CODE BEGIN MX_GPIO_Init_1 */
/* USER CODE END MX_GPIO_Init_1 */

  /* GPIO Ports Clock Enable */
  __HAL_RCC_GPIOF_CLK_ENABLE();
 80003c2:	4b24      	ldr	r3, [pc, #144]	@ (8000454 <MX_GPIO_Init+0xa8>)
 80003c4:	695a      	ldr	r2, [r3, #20]
 80003c6:	4b23      	ldr	r3, [pc, #140]	@ (8000454 <MX_GPIO_Init+0xa8>)
 80003c8:	2180      	movs	r1, #128	@ 0x80
 80003ca:	03c9      	lsls	r1, r1, #15
 80003cc:	430a      	orrs	r2, r1
 80003ce:	615a      	str	r2, [r3, #20]
 80003d0:	4b20      	ldr	r3, [pc, #128]	@ (8000454 <MX_GPIO_Init+0xa8>)
 80003d2:	695a      	ldr	r2, [r3, #20]
 80003d4:	2380      	movs	r3, #128	@ 0x80
 80003d6:	03db      	lsls	r3, r3, #15
 80003d8:	4013      	ands	r3, r2
 80003da:	60bb      	str	r3, [r7, #8]
 80003dc:	68bb      	ldr	r3, [r7, #8]
  __HAL_RCC_GPIOC_CLK_ENABLE();
 80003de:	4b1d      	ldr	r3, [pc, #116]	@ (8000454 <MX_GPIO_Init+0xa8>)
 80003e0:	695a      	ldr	r2, [r3, #20]
 80003e2:	4b1c      	ldr	r3, [pc, #112]	@ (8000454 <MX_GPIO_Init+0xa8>)
 80003e4:	2180      	movs	r1, #128	@ 0x80
 80003e6:	0309      	lsls	r1, r1, #12
 80003e8:	430a      	orrs	r2, r1
 80003ea:	615a      	str	r2, [r3, #20]
 80003ec:	4b19      	ldr	r3, [pc, #100]	@ (8000454 <MX_GPIO_Init+0xa8>)
 80003ee:	695a      	ldr	r2, [r3, #20]
 80003f0:	2380      	movs	r3, #128	@ 0x80
 80003f2:	031b      	lsls	r3, r3, #12
 80003f4:	4013      	ands	r3, r2
 80003f6:	607b      	str	r3, [r7, #4]
 80003f8:	687b      	ldr	r3, [r7, #4]
  __HAL_RCC_GPIOA_CLK_ENABLE();
 80003fa:	4b16      	ldr	r3, [pc, #88]	@ (8000454 <MX_GPIO_Init+0xa8>)
 80003fc:	695a      	ldr	r2, [r3, #20]
 80003fe:	4b15      	ldr	r3, [pc, #84]	@ (8000454 <MX_GPIO_Init+0xa8>)
 8000400:	2180      	movs	r1, #128	@ 0x80
 8000402:	0289      	lsls	r1, r1, #10
 8000404:	430a      	orrs	r2, r1
 8000406:	615a      	str	r2, [r3, #20]
 8000408:	4b12      	ldr	r3, [pc, #72]	@ (8000454 <MX_GPIO_Init+0xa8>)
 800040a:	695a      	ldr	r2, [r3, #20]
 800040c:	2380      	movs	r3, #128	@ 0x80
 800040e:	029b      	lsls	r3, r3, #10
 8000410:	4013      	ands	r3, r2
 8000412:	603b      	str	r3, [r7, #0]
 8000414:	683b      	ldr	r3, [r7, #0]

  /*Configure GPIO pin Output Level */
  HAL_GPIO_WritePin(GPIOC, GPIO_PIN_8|GPIO_PIN_9, GPIO_PIN_RESET);
 8000416:	23c0      	movs	r3, #192	@ 0xc0
 8000418:	009b      	lsls	r3, r3, #2
 800041a:	480f      	ldr	r0, [pc, #60]	@ (8000458 <MX_GPIO_Init+0xac>)
 800041c:	2200      	movs	r2, #0
 800041e:	0019      	movs	r1, r3
 8000420:	f000 ff1c 	bl	800125c <HAL_GPIO_WritePin>

  /*Configure GPIO pins : PC8 PC9 */
  GPIO_InitStruct.Pin = GPIO_PIN_8|GPIO_PIN_9;
 8000424:	193b      	adds	r3, r7, r4
 8000426:	22c0      	movs	r2, #192	@ 0xc0
 8000428:	0092      	lsls	r2, r2, #2
 800042a:	601a      	str	r2, [r3, #0]
  GPIO_InitStruct.Mode = GPIO_MODE_OUTPUT_PP;
 800042c:	193b      	adds	r3, r7, r4
 800042e:	2201      	movs	r2, #1
 8000430:	605a      	str	r2, [r3, #4]
  GPIO_InitStruct.Pull = GPIO_NOPULL;
 8000432:	193b      	adds	r3, r7, r4
 8000434:	2200      	movs	r2, #0
 8000436:	609a      	str	r2, [r3, #8]
  GPIO_InitStruct.Speed = GPIO_SPEED_FREQ_LOW;
 8000438:	193b      	adds	r3, r7, r4
 800043a:	2200      	movs	r2, #0
 800043c:	60da      	str	r2, [r3, #12]
  HAL_GPIO_Init(GPIOC, &GPIO_InitStruct);
 800043e:	193b      	adds	r3, r7, r4
 8000440:	4a05      	ldr	r2, [pc, #20]	@ (8000458 <MX_GPIO_Init+0xac>)
 8000442:	0019      	movs	r1, r3
 8000444:	0010      	movs	r0, r2
 8000446:	f000 fd99 	bl	8000f7c <HAL_GPIO_Init>

/* USER CODE BEGIN MX_GPIO_Init_2 */
/* USER CODE END MX_GPIO_Init_2 */
}
 800044a:	46c0      	nop			@ (mov r8, r8)
 800044c:	46bd      	mov	sp, r7
 800044e:	b009      	add	sp, #36	@ 0x24
 8000450:	bd90      	pop	{r4, r7, pc}
 8000452:	46c0      	nop			@ (mov r8, r8)
 8000454:	40021000 	.word	0x40021000
 8000458:	48000800 	.word	0x48000800

0800045c <HAL_UART_RxCpltCallback>:

/* USER CODE BEGIN 4 */
void HAL_UART_RxCpltCallback(UART_HandleTypeDef *huart) {
 800045c:	b5f0      	push	{r4, r5, r6, r7, lr}
 800045e:	b08f      	sub	sp, #60	@ 0x3c
 8000460:	af02      	add	r7, sp, #8
 8000462:	6078      	str	r0, [r7, #4]
    if (huart->Instance == USART1) {
 8000464:	687b      	ldr	r3, [r7, #4]
 8000466:	681b      	ldr	r3, [r3, #0]
 8000468:	4a16      	ldr	r2, [pc, #88]	@ (80004c4 <HAL_UART_RxCpltCallback+0x68>)
 800046a:	4293      	cmp	r3, r2
 800046c:	d126      	bne.n	80004bc <HAL_UART_RxCpltCallback+0x60>
    	uint16_t test_massage[sizeof(frame)+4];
    	uint8_t cmd = 2;
 800046e:	212f      	movs	r1, #47	@ 0x2f
 8000470:	187b      	adds	r3, r7, r1
 8000472:	2202      	movs	r2, #2
 8000474:	701a      	strb	r2, [r3, #0]
    	uint8_t frog_x = 12;
 8000476:	242e      	movs	r4, #46	@ 0x2e
 8000478:	193b      	adds	r3, r7, r4
 800047a:	220c      	movs	r2, #12
 800047c:	701a      	strb	r2, [r3, #0]
    	uint8_t frog_y = 4;
 800047e:	252d      	movs	r5, #45	@ 0x2d
 8000480:	197b      	adds	r3, r7, r5
 8000482:	2204      	movs	r2, #4
 8000484:	701a      	strb	r2, [r3, #0]
    	uint8_t encoded_frame[10];  // припустимо, що максимальний розмір кадру 10
    	encode_frame_snake(frame, sizeof(frame), encoded_frame, cmd, frog_x, frog_y);
 8000486:	187b      	adds	r3, r7, r1
 8000488:	7819      	ldrb	r1, [r3, #0]
 800048a:	260c      	movs	r6, #12
 800048c:	19ba      	adds	r2, r7, r6
 800048e:	480e      	ldr	r0, [pc, #56]	@ (80004c8 <HAL_UART_RxCpltCallback+0x6c>)
 8000490:	197b      	adds	r3, r7, r5
 8000492:	781b      	ldrb	r3, [r3, #0]
 8000494:	9301      	str	r3, [sp, #4]
 8000496:	193b      	adds	r3, r7, r4
 8000498:	781b      	ldrb	r3, [r3, #0]
 800049a:	9300      	str	r3, [sp, #0]
 800049c:	000b      	movs	r3, r1
 800049e:	2105      	movs	r1, #5
 80004a0:	f000 f89e 	bl	80005e0 <encode_frame_snake>
    	HAL_UART_Transmit(&huart1, encoded_frame, sizeof(encoded_frame), 100);
 80004a4:	19b9      	adds	r1, r7, r6
 80004a6:	4809      	ldr	r0, [pc, #36]	@ (80004cc <HAL_UART_RxCpltCallback+0x70>)
 80004a8:	2364      	movs	r3, #100	@ 0x64
 80004aa:	220a      	movs	r2, #10
 80004ac:	f001 fc84 	bl	8001db8 <HAL_UART_Transmit>
        HAL_UART_Receive_DMA(&huart1, frame, sizeof(frame));
 80004b0:	4905      	ldr	r1, [pc, #20]	@ (80004c8 <HAL_UART_RxCpltCallback+0x6c>)
 80004b2:	4b06      	ldr	r3, [pc, #24]	@ (80004cc <HAL_UART_RxCpltCallback+0x70>)
 80004b4:	2205      	movs	r2, #5
 80004b6:	0018      	movs	r0, r3
 80004b8:	f001 fd1d 	bl	8001ef6 <HAL_UART_Receive_DMA>
    }
}
 80004bc:	46c0      	nop			@ (mov r8, r8)
 80004be:	46bd      	mov	sp, r7
 80004c0:	b00d      	add	sp, #52	@ 0x34
 80004c2:	bdf0      	pop	{r4, r5, r6, r7, pc}
 80004c4:	40013800 	.word	0x40013800
 80004c8:	200000f4 	.word	0x200000f4
 80004cc:	20000028 	.word	0x20000028

080004d0 <Error_Handler>:
/**
  * @brief  This function is executed in case of error occurrence.
  * @retval None
  */
void Error_Handler(void)
{
 80004d0:	b580      	push	{r7, lr}
 80004d2:	af00      	add	r7, sp, #0
  \details Disables IRQ interrupts by setting the I-bit in the CPSR.
           Can only be executed in Privileged modes.
 */
__STATIC_FORCEINLINE void __disable_irq(void)
{
  __ASM volatile ("cpsid i" : : : "memory");
 80004d4:	b672      	cpsid	i
}
 80004d6:	46c0      	nop			@ (mov r8, r8)
  /* USER CODE BEGIN Error_Handler_Debug */
  /* User can add his own implementation to report the HAL error return state */
  __disable_irq();
  while (1)
 80004d8:	46c0      	nop			@ (mov r8, r8)
 80004da:	e7fd      	b.n	80004d8 <Error_Handler+0x8>

080004dc <crc16_ccitt_snake>:
#include <protocol.h>



// Функція обчислення CRC-16-CCITT для пакету змійки (поліном 0x1021, початкове значення 0xFFFF)
uint16_t crc16_ccitt_snake(const uint8_t *data, uint16_t len, uint8_t cmd, uint8_t frog_x, uint8_t frog_y) {
 80004dc:	b590      	push	{r4, r7, lr}
 80004de:	b085      	sub	sp, #20
 80004e0:	af00      	add	r7, sp, #0
 80004e2:	6078      	str	r0, [r7, #4]
 80004e4:	000c      	movs	r4, r1
 80004e6:	0010      	movs	r0, r2
 80004e8:	0019      	movs	r1, r3
 80004ea:	1cbb      	adds	r3, r7, #2
 80004ec:	1c22      	adds	r2, r4, #0
 80004ee:	801a      	strh	r2, [r3, #0]
 80004f0:	1c7b      	adds	r3, r7, #1
 80004f2:	1c02      	adds	r2, r0, #0
 80004f4:	701a      	strb	r2, [r3, #0]
 80004f6:	003b      	movs	r3, r7
 80004f8:	1c0a      	adds	r2, r1, #0
 80004fa:	701a      	strb	r2, [r3, #0]
    uint16_t crc = 0xFFFF;									//початкове значення
 80004fc:	210e      	movs	r1, #14
 80004fe:	187b      	adds	r3, r7, r1
 8000500:	2201      	movs	r2, #1
 8000502:	4252      	negs	r2, r2
 8000504:	801a      	strh	r2, [r3, #0]
    crc ^= ((uint16_t)cmd << 8);							//команда cmd
 8000506:	1c7b      	adds	r3, r7, #1
 8000508:	781b      	ldrb	r3, [r3, #0]
 800050a:	021b      	lsls	r3, r3, #8
 800050c:	b21a      	sxth	r2, r3
 800050e:	187b      	adds	r3, r7, r1
 8000510:	2000      	movs	r0, #0
 8000512:	5e1b      	ldrsh	r3, [r3, r0]
 8000514:	4053      	eors	r3, r2
 8000516:	b21a      	sxth	r2, r3
 8000518:	187b      	adds	r3, r7, r1
 800051a:	801a      	strh	r2, [r3, #0]
    crc ^= ((uint16_t)frog_x << 8) | frog_y;				//ставимо жабку
 800051c:	003b      	movs	r3, r7
 800051e:	781b      	ldrb	r3, [r3, #0]
 8000520:	021b      	lsls	r3, r3, #8
 8000522:	b21a      	sxth	r2, r3
 8000524:	2320      	movs	r3, #32
 8000526:	18fb      	adds	r3, r7, r3
 8000528:	781b      	ldrb	r3, [r3, #0]
 800052a:	b21b      	sxth	r3, r3
 800052c:	4313      	orrs	r3, r2
 800052e:	b21a      	sxth	r2, r3
 8000530:	187b      	adds	r3, r7, r1
 8000532:	2000      	movs	r0, #0
 8000534:	5e1b      	ldrsh	r3, [r3, r0]
 8000536:	4053      	eors	r3, r2
 8000538:	b21a      	sxth	r2, r3
 800053a:	187b      	adds	r3, r7, r1
 800053c:	801a      	strh	r2, [r3, #0]
    for (uint16_t i = 0; i < len; i++) {
 800053e:	230c      	movs	r3, #12
 8000540:	18fb      	adds	r3, r7, r3
 8000542:	2200      	movs	r2, #0
 8000544:	801a      	strh	r2, [r3, #0]
 8000546:	e03b      	b.n	80005c0 <crc16_ccitt_snake+0xe4>
        crc ^= ((uint16_t)data[i] << 8);					//записуємо корисні дані
 8000548:	230c      	movs	r3, #12
 800054a:	18fb      	adds	r3, r7, r3
 800054c:	881b      	ldrh	r3, [r3, #0]
 800054e:	687a      	ldr	r2, [r7, #4]
 8000550:	18d3      	adds	r3, r2, r3
 8000552:	781b      	ldrb	r3, [r3, #0]
 8000554:	021b      	lsls	r3, r3, #8
 8000556:	b21a      	sxth	r2, r3
 8000558:	210e      	movs	r1, #14
 800055a:	187b      	adds	r3, r7, r1
 800055c:	2000      	movs	r0, #0
 800055e:	5e1b      	ldrsh	r3, [r3, r0]
 8000560:	4053      	eors	r3, r2
 8000562:	b21a      	sxth	r2, r3
 8000564:	187b      	adds	r3, r7, r1
 8000566:	801a      	strh	r2, [r3, #0]
        for (uint8_t j = 0; j < 8; j++) {
 8000568:	230b      	movs	r3, #11
 800056a:	18fb      	adds	r3, r7, r3
 800056c:	2200      	movs	r2, #0
 800056e:	701a      	strb	r2, [r3, #0]
 8000570:	e01b      	b.n	80005aa <crc16_ccitt_snake+0xce>
            if (crc & 0x8000)
 8000572:	210e      	movs	r1, #14
 8000574:	187b      	adds	r3, r7, r1
 8000576:	2200      	movs	r2, #0
 8000578:	5e9b      	ldrsh	r3, [r3, r2]
 800057a:	2b00      	cmp	r3, #0
 800057c:	da09      	bge.n	8000592 <crc16_ccitt_snake+0xb6>
                crc = (crc << 1) ^ 0x1021;					//поліном
 800057e:	187b      	adds	r3, r7, r1
 8000580:	881b      	ldrh	r3, [r3, #0]
 8000582:	005b      	lsls	r3, r3, #1
 8000584:	b21b      	sxth	r3, r3
 8000586:	4a15      	ldr	r2, [pc, #84]	@ (80005dc <crc16_ccitt_snake+0x100>)
 8000588:	4053      	eors	r3, r2
 800058a:	b21a      	sxth	r2, r3
 800058c:	187b      	adds	r3, r7, r1
 800058e:	801a      	strh	r2, [r3, #0]
 8000590:	e005      	b.n	800059e <crc16_ccitt_snake+0xc2>
            else
                crc <<= 1;
 8000592:	230e      	movs	r3, #14
 8000594:	18fa      	adds	r2, r7, r3
 8000596:	18fb      	adds	r3, r7, r3
 8000598:	881b      	ldrh	r3, [r3, #0]
 800059a:	18db      	adds	r3, r3, r3
 800059c:	8013      	strh	r3, [r2, #0]
        for (uint8_t j = 0; j < 8; j++) {
 800059e:	210b      	movs	r1, #11
 80005a0:	187b      	adds	r3, r7, r1
 80005a2:	781a      	ldrb	r2, [r3, #0]
 80005a4:	187b      	adds	r3, r7, r1
 80005a6:	3201      	adds	r2, #1
 80005a8:	701a      	strb	r2, [r3, #0]
 80005aa:	230b      	movs	r3, #11
 80005ac:	18fb      	adds	r3, r7, r3
 80005ae:	781b      	ldrb	r3, [r3, #0]
 80005b0:	2b07      	cmp	r3, #7
 80005b2:	d9de      	bls.n	8000572 <crc16_ccitt_snake+0x96>
    for (uint16_t i = 0; i < len; i++) {
 80005b4:	210c      	movs	r1, #12
 80005b6:	187b      	adds	r3, r7, r1
 80005b8:	881a      	ldrh	r2, [r3, #0]
 80005ba:	187b      	adds	r3, r7, r1
 80005bc:	3201      	adds	r2, #1
 80005be:	801a      	strh	r2, [r3, #0]
 80005c0:	230c      	movs	r3, #12
 80005c2:	18fa      	adds	r2, r7, r3
 80005c4:	1cbb      	adds	r3, r7, #2
 80005c6:	8812      	ldrh	r2, [r2, #0]
 80005c8:	881b      	ldrh	r3, [r3, #0]
 80005ca:	429a      	cmp	r2, r3
 80005cc:	d3bc      	bcc.n	8000548 <crc16_ccitt_snake+0x6c>
        }
    }
    return crc;
 80005ce:	230e      	movs	r3, #14
 80005d0:	18fb      	adds	r3, r7, r3
 80005d2:	881b      	ldrh	r3, [r3, #0]
}
 80005d4:	0018      	movs	r0, r3
 80005d6:	46bd      	mov	sp, r7
 80005d8:	b005      	add	sp, #20
 80005da:	bd90      	pop	{r4, r7, pc}
 80005dc:	00001021 	.word	0x00001021

080005e0 <encode_frame_snake>:
    }
    return crc;
}

//функція кодування пакету змії
void encode_frame_snake(const uint8_t *payload, uint8_t payload_len, uint8_t *frame, uint8_t cmd_byte, uint8_t frog_x, uint8_t frog_y) {
 80005e0:	b5f0      	push	{r4, r5, r6, r7, lr}
 80005e2:	b089      	sub	sp, #36	@ 0x24
 80005e4:	af02      	add	r7, sp, #8
 80005e6:	60f8      	str	r0, [r7, #12]
 80005e8:	0008      	movs	r0, r1
 80005ea:	607a      	str	r2, [r7, #4]
 80005ec:	0019      	movs	r1, r3
 80005ee:	240b      	movs	r4, #11
 80005f0:	193b      	adds	r3, r7, r4
 80005f2:	1c02      	adds	r2, r0, #0
 80005f4:	701a      	strb	r2, [r3, #0]
 80005f6:	200a      	movs	r0, #10
 80005f8:	183b      	adds	r3, r7, r0
 80005fa:	1c0a      	adds	r2, r1, #0
 80005fc:	701a      	strb	r2, [r3, #0]
    frame[0] = START_BYTE;
 80005fe:	687b      	ldr	r3, [r7, #4]
 8000600:	227e      	movs	r2, #126	@ 0x7e
 8000602:	701a      	strb	r2, [r3, #0]
    frame[1] = cmd_byte;
 8000604:	687b      	ldr	r3, [r7, #4]
 8000606:	3301      	adds	r3, #1
 8000608:	183a      	adds	r2, r7, r0
 800060a:	7812      	ldrb	r2, [r2, #0]
 800060c:	701a      	strb	r2, [r3, #0]
    frame[2] = payload_len;
 800060e:	687b      	ldr	r3, [r7, #4]
 8000610:	3302      	adds	r3, #2
 8000612:	193a      	adds	r2, r7, r4
 8000614:	7812      	ldrb	r2, [r2, #0]
 8000616:	701a      	strb	r2, [r3, #0]
    memcpy(&frame[3], payload, payload_len);
 8000618:	687b      	ldr	r3, [r7, #4]
 800061a:	1cd8      	adds	r0, r3, #3
 800061c:	0026      	movs	r6, r4
 800061e:	19bb      	adds	r3, r7, r6
 8000620:	781a      	ldrb	r2, [r3, #0]
 8000622:	68fb      	ldr	r3, [r7, #12]
 8000624:	0019      	movs	r1, r3
 8000626:	f002 fd65 	bl	80030f4 <memcpy>
    frame[3 + payload_len] = frog_x;
 800062a:	19bb      	adds	r3, r7, r6
 800062c:	781b      	ldrb	r3, [r3, #0]
 800062e:	3303      	adds	r3, #3
 8000630:	001a      	movs	r2, r3
 8000632:	687b      	ldr	r3, [r7, #4]
 8000634:	189a      	adds	r2, r3, r2
 8000636:	2528      	movs	r5, #40	@ 0x28
 8000638:	2008      	movs	r0, #8
 800063a:	182b      	adds	r3, r5, r0
 800063c:	19db      	adds	r3, r3, r7
 800063e:	781b      	ldrb	r3, [r3, #0]
 8000640:	7013      	strb	r3, [r2, #0]
    frame[4 + payload_len] = frog_y;
 8000642:	19bb      	adds	r3, r7, r6
 8000644:	781b      	ldrb	r3, [r3, #0]
 8000646:	3304      	adds	r3, #4
 8000648:	001a      	movs	r2, r3
 800064a:	687b      	ldr	r3, [r7, #4]
 800064c:	189b      	adds	r3, r3, r2
 800064e:	222c      	movs	r2, #44	@ 0x2c
 8000650:	1812      	adds	r2, r2, r0
 8000652:	19d2      	adds	r2, r2, r7
 8000654:	7812      	ldrb	r2, [r2, #0]
 8000656:	701a      	strb	r2, [r3, #0]

    uint16_t crc = crc16_ccitt_snake(payload, payload_len, cmd_byte, frog_x, frog_y);
 8000658:	19bb      	adds	r3, r7, r6
 800065a:	781b      	ldrb	r3, [r3, #0]
 800065c:	b299      	uxth	r1, r3
 800065e:	2316      	movs	r3, #22
 8000660:	18fc      	adds	r4, r7, r3
 8000662:	0002      	movs	r2, r0
 8000664:	182b      	adds	r3, r5, r0
 8000666:	19db      	adds	r3, r3, r7
 8000668:	781d      	ldrb	r5, [r3, #0]
 800066a:	200a      	movs	r0, #10
 800066c:	183b      	adds	r3, r7, r0
 800066e:	781b      	ldrb	r3, [r3, #0]
 8000670:	469c      	mov	ip, r3
 8000672:	68f8      	ldr	r0, [r7, #12]
 8000674:	232c      	movs	r3, #44	@ 0x2c
 8000676:	189b      	adds	r3, r3, r2
 8000678:	19db      	adds	r3, r3, r7
 800067a:	781b      	ldrb	r3, [r3, #0]
 800067c:	9300      	str	r3, [sp, #0]
 800067e:	002b      	movs	r3, r5
 8000680:	4662      	mov	r2, ip
 8000682:	f7ff ff2b 	bl	80004dc <crc16_ccitt_snake>
 8000686:	0003      	movs	r3, r0
 8000688:	8023      	strh	r3, [r4, #0]
    frame[5 + payload_len] = (crc >> 8) & 0xFF;
 800068a:	2016      	movs	r0, #22
 800068c:	183b      	adds	r3, r7, r0
 800068e:	881b      	ldrh	r3, [r3, #0]
 8000690:	0a1b      	lsrs	r3, r3, #8
 8000692:	b29a      	uxth	r2, r3
 8000694:	19bb      	adds	r3, r7, r6
 8000696:	781b      	ldrb	r3, [r3, #0]
 8000698:	3305      	adds	r3, #5
 800069a:	0019      	movs	r1, r3
 800069c:	687b      	ldr	r3, [r7, #4]
 800069e:	185b      	adds	r3, r3, r1
 80006a0:	b2d2      	uxtb	r2, r2
 80006a2:	701a      	strb	r2, [r3, #0]
    frame[6 + payload_len] = crc & 0xFF;
 80006a4:	19bb      	adds	r3, r7, r6
 80006a6:	781b      	ldrb	r3, [r3, #0]
 80006a8:	3306      	adds	r3, #6
 80006aa:	001a      	movs	r2, r3
 80006ac:	687b      	ldr	r3, [r7, #4]
 80006ae:	189b      	adds	r3, r3, r2
 80006b0:	183a      	adds	r2, r7, r0
 80006b2:	8812      	ldrh	r2, [r2, #0]
 80006b4:	b2d2      	uxtb	r2, r2
 80006b6:	701a      	strb	r2, [r3, #0]
}
 80006b8:	46c0      	nop			@ (mov r8, r8)
 80006ba:	46bd      	mov	sp, r7
 80006bc:	b007      	add	sp, #28
 80006be:	bdf0      	pop	{r4, r5, r6, r7, pc}

080006c0 <HAL_MspInit>:
/* USER CODE END 0 */
/**
  * Initializes the Global MSP.
  */
void HAL_MspInit(void)
{
 80006c0:	b580      	push	{r7, lr}
 80006c2:	b082      	sub	sp, #8
 80006c4:	af00      	add	r7, sp, #0

  /* USER CODE BEGIN MspInit 0 */

  /* USER CODE END MspInit 0 */

  __HAL_RCC_SYSCFG_CLK_ENABLE();
 80006c6:	4b0f      	ldr	r3, [pc, #60]	@ (8000704 <HAL_MspInit+0x44>)
 80006c8:	699a      	ldr	r2, [r3, #24]
 80006ca:	4b0e      	ldr	r3, [pc, #56]	@ (8000704 <HAL_MspInit+0x44>)
 80006cc:	2101      	movs	r1, #1
 80006ce:	430a      	orrs	r2, r1
 80006d0:	619a      	str	r2, [r3, #24]
 80006d2:	4b0c      	ldr	r3, [pc, #48]	@ (8000704 <HAL_MspInit+0x44>)
 80006d4:	699b      	ldr	r3, [r3, #24]
 80006d6:	2201      	movs	r2, #1
 80006d8:	4013      	ands	r3, r2
 80006da:	607b      	str	r3, [r7, #4]
 80006dc:	687b      	ldr	r3, [r7, #4]
  __HAL_RCC_PWR_CLK_ENABLE();
 80006de:	4b09      	ldr	r3, [pc, #36]	@ (8000704 <HAL_MspInit+0x44>)
 80006e0:	69da      	ldr	r2, [r3, #28]
 80006e2:	4b08      	ldr	r3, [pc, #32]	@ (8000704 <HAL_MspInit+0x44>)
 80006e4:	2180      	movs	r1, #128	@ 0x80
 80006e6:	0549      	lsls	r1, r1, #21
 80006e8:	430a      	orrs	r2, r1
 80006ea:	61da      	str	r2, [r3, #28]
 80006ec:	4b05      	ldr	r3, [pc, #20]	@ (8000704 <HAL_MspInit+0x44>)
 80006ee:	69da      	ldr	r2, [r3, #28]
 80006f0:	2380      	movs	r3, #128	@ 0x80
 80006f2:	055b      	lsls	r3, r3, #21
 80006f4:	4013      	ands	r3, r2
 80006f6:	603b      	str	r3, [r7, #0]
 80006f8:	683b      	ldr	r3, [r7, #0]
  /* System interrupt init*/

  /* USER CODE BEGIN MspInit 1 */

  /* USER CODE END MspInit 1 */
}
 80006fa:	46c0      	nop			@ (mov r8, r8)
 80006fc:	46bd      	mov	sp, r7
 80006fe:	b002      	add	sp, #8
 8000700:	bd80      	pop	{r7, pc}
 8000702:	46c0      	nop			@ (mov r8, r8)
 8000704:	40021000 	.word	0x40021000

08000708 <HAL_UART_MspInit>:
* This function configures the hardware resources used in this example
* @param huart: UART handle pointer
* @retval None
*/
void HAL_UART_MspInit(UART_HandleTypeDef* huart)
{
 8000708:	b590      	push	{r4, r7, lr}
 800070a:	b08b      	sub	sp, #44	@ 0x2c
 800070c:	af00      	add	r7, sp, #0
 800070e:	6078      	str	r0, [r7, #4]
  GPIO_InitTypeDef GPIO_InitStruct = {0};
 8000710:	2414      	movs	r4, #20
 8000712:	193b      	adds	r3, r7, r4
 8000714:	0018      	movs	r0, r3
 8000716:	2314      	movs	r3, #20
 8000718:	001a      	movs	r2, r3
 800071a:	2100      	movs	r1, #0
 800071c:	f002 fcbd 	bl	800309a <memset>
  if(huart->Instance==USART1)
 8000720:	687b      	ldr	r3, [r7, #4]
 8000722:	681b      	ldr	r3, [r3, #0]
 8000724:	4a34      	ldr	r2, [pc, #208]	@ (80007f8 <HAL_UART_MspInit+0xf0>)
 8000726:	4293      	cmp	r3, r2
 8000728:	d161      	bne.n	80007ee <HAL_UART_MspInit+0xe6>
  {
  /* USER CODE BEGIN USART1_MspInit 0 */

  /* USER CODE END USART1_MspInit 0 */
    /* Peripheral clock enable */
    __HAL_RCC_USART1_CLK_ENABLE();
 800072a:	4b34      	ldr	r3, [pc, #208]	@ (80007fc <HAL_UART_MspInit+0xf4>)
 800072c:	699a      	ldr	r2, [r3, #24]
 800072e:	4b33      	ldr	r3, [pc, #204]	@ (80007fc <HAL_UART_MspInit+0xf4>)
 8000730:	2180      	movs	r1, #128	@ 0x80
 8000732:	01c9      	lsls	r1, r1, #7
 8000734:	430a      	orrs	r2, r1
 8000736:	619a      	str	r2, [r3, #24]
 8000738:	4b30      	ldr	r3, [pc, #192]	@ (80007fc <HAL_UART_MspInit+0xf4>)
 800073a:	699a      	ldr	r2, [r3, #24]
 800073c:	2380      	movs	r3, #128	@ 0x80
 800073e:	01db      	lsls	r3, r3, #7
 8000740:	4013      	ands	r3, r2
 8000742:	613b      	str	r3, [r7, #16]
 8000744:	693b      	ldr	r3, [r7, #16]

    __HAL_RCC_GPIOA_CLK_ENABLE();
 8000746:	4b2d      	ldr	r3, [pc, #180]	@ (80007fc <HAL_UART_MspInit+0xf4>)
 8000748:	695a      	ldr	r2, [r3, #20]
 800074a:	4b2c      	ldr	r3, [pc, #176]	@ (80007fc <HAL_UART_MspInit+0xf4>)
 800074c:	2180      	movs	r1, #128	@ 0x80
 800074e:	0289      	lsls	r1, r1, #10
 8000750:	430a      	orrs	r2, r1
 8000752:	615a      	str	r2, [r3, #20]
 8000754:	4b29      	ldr	r3, [pc, #164]	@ (80007fc <HAL_UART_MspInit+0xf4>)
 8000756:	695a      	ldr	r2, [r3, #20]
 8000758:	2380      	movs	r3, #128	@ 0x80
 800075a:	029b      	lsls	r3, r3, #10
 800075c:	4013      	ands	r3, r2
 800075e:	60fb      	str	r3, [r7, #12]
 8000760:	68fb      	ldr	r3, [r7, #12]
    /**USART1 GPIO Configuration
    PA9     ------> USART1_TX
    PA10     ------> USART1_RX
    */
    GPIO_InitStruct.Pin = GPIO_PIN_9|GPIO_PIN_10;
 8000762:	193b      	adds	r3, r7, r4
 8000764:	22c0      	movs	r2, #192	@ 0xc0
 8000766:	00d2      	lsls	r2, r2, #3
 8000768:	601a      	str	r2, [r3, #0]
    GPIO_InitStruct.Mode = GPIO_MODE_AF_PP;
 800076a:	0021      	movs	r1, r4
 800076c:	187b      	adds	r3, r7, r1
 800076e:	2202      	movs	r2, #2
 8000770:	605a      	str	r2, [r3, #4]
    GPIO_InitStruct.Pull = GPIO_NOPULL;
 8000772:	187b      	adds	r3, r7, r1
 8000774:	2200      	movs	r2, #0
 8000776:	609a      	str	r2, [r3, #8]
    GPIO_InitStruct.Speed = GPIO_SPEED_FREQ_HIGH;
 8000778:	187b      	adds	r3, r7, r1
 800077a:	2203      	movs	r2, #3
 800077c:	60da      	str	r2, [r3, #12]
    GPIO_InitStruct.Alternate = GPIO_AF1_USART1;
 800077e:	187b      	adds	r3, r7, r1
 8000780:	2201      	movs	r2, #1
 8000782:	611a      	str	r2, [r3, #16]
    HAL_GPIO_Init(GPIOA, &GPIO_InitStruct);
 8000784:	187a      	adds	r2, r7, r1
 8000786:	2390      	movs	r3, #144	@ 0x90
 8000788:	05db      	lsls	r3, r3, #23
 800078a:	0011      	movs	r1, r2
 800078c:	0018      	movs	r0, r3
 800078e:	f000 fbf5 	bl	8000f7c <HAL_GPIO_Init>

    /* USART1 DMA Init */
    /* USART1_RX Init */
    hdma_usart1_rx.Instance = DMA1_Channel3;
 8000792:	4b1b      	ldr	r3, [pc, #108]	@ (8000800 <HAL_UART_MspInit+0xf8>)
 8000794:	4a1b      	ldr	r2, [pc, #108]	@ (8000804 <HAL_UART_MspInit+0xfc>)
 8000796:	601a      	str	r2, [r3, #0]
    hdma_usart1_rx.Init.Direction = DMA_PERIPH_TO_MEMORY;
 8000798:	4b19      	ldr	r3, [pc, #100]	@ (8000800 <HAL_UART_MspInit+0xf8>)
 800079a:	2200      	movs	r2, #0
 800079c:	605a      	str	r2, [r3, #4]
    hdma_usart1_rx.Init.PeriphInc = DMA_PINC_DISABLE;
 800079e:	4b18      	ldr	r3, [pc, #96]	@ (8000800 <HAL_UART_MspInit+0xf8>)
 80007a0:	2200      	movs	r2, #0
 80007a2:	609a      	str	r2, [r3, #8]
    hdma_usart1_rx.Init.MemInc = DMA_MINC_ENABLE;
 80007a4:	4b16      	ldr	r3, [pc, #88]	@ (8000800 <HAL_UART_MspInit+0xf8>)
 80007a6:	2280      	movs	r2, #128	@ 0x80
 80007a8:	60da      	str	r2, [r3, #12]
    hdma_usart1_rx.Init.PeriphDataAlignment = DMA_PDATAALIGN_BYTE;
 80007aa:	4b15      	ldr	r3, [pc, #84]	@ (8000800 <HAL_UART_MspInit+0xf8>)
 80007ac:	2200      	movs	r2, #0
 80007ae:	611a      	str	r2, [r3, #16]
    hdma_usart1_rx.Init.MemDataAlignment = DMA_MDATAALIGN_BYTE;
 80007b0:	4b13      	ldr	r3, [pc, #76]	@ (8000800 <HAL_UART_MspInit+0xf8>)
 80007b2:	2200      	movs	r2, #0
 80007b4:	615a      	str	r2, [r3, #20]
    hdma_usart1_rx.Init.Mode = DMA_CIRCULAR;
 80007b6:	4b12      	ldr	r3, [pc, #72]	@ (8000800 <HAL_UART_MspInit+0xf8>)
 80007b8:	2220      	movs	r2, #32
 80007ba:	619a      	str	r2, [r3, #24]
    hdma_usart1_rx.Init.Priority = DMA_PRIORITY_LOW;
 80007bc:	4b10      	ldr	r3, [pc, #64]	@ (8000800 <HAL_UART_MspInit+0xf8>)
 80007be:	2200      	movs	r2, #0
 80007c0:	61da      	str	r2, [r3, #28]
    if (HAL_DMA_Init(&hdma_usart1_rx) != HAL_OK)
 80007c2:	4b0f      	ldr	r3, [pc, #60]	@ (8000800 <HAL_UART_MspInit+0xf8>)
 80007c4:	0018      	movs	r0, r3
 80007c6:	f000 f9c3 	bl	8000b50 <HAL_DMA_Init>
 80007ca:	1e03      	subs	r3, r0, #0
 80007cc:	d001      	beq.n	80007d2 <HAL_UART_MspInit+0xca>
    {
      Error_Handler();
 80007ce:	f7ff fe7f 	bl	80004d0 <Error_Handler>
    }

    __HAL_LINKDMA(huart,hdmarx,hdma_usart1_rx);
 80007d2:	687b      	ldr	r3, [r7, #4]
 80007d4:	4a0a      	ldr	r2, [pc, #40]	@ (8000800 <HAL_UART_MspInit+0xf8>)
 80007d6:	675a      	str	r2, [r3, #116]	@ 0x74
 80007d8:	4b09      	ldr	r3, [pc, #36]	@ (8000800 <HAL_UART_MspInit+0xf8>)
 80007da:	687a      	ldr	r2, [r7, #4]
 80007dc:	625a      	str	r2, [r3, #36]	@ 0x24

    /* USART1 interrupt Init */
    HAL_NVIC_SetPriority(USART1_IRQn, 0, 0);
 80007de:	2200      	movs	r2, #0
 80007e0:	2100      	movs	r1, #0
 80007e2:	201b      	movs	r0, #27
 80007e4:	f000 f982 	bl	8000aec <HAL_NVIC_SetPriority>
    HAL_NVIC_EnableIRQ(USART1_IRQn);
 80007e8:	201b      	movs	r0, #27
 80007ea:	f000 f994 	bl	8000b16 <HAL_NVIC_EnableIRQ>
  /* USER CODE BEGIN USART1_MspInit 1 */

  /* USER CODE END USART1_MspInit 1 */
  }

}
 80007ee:	46c0      	nop			@ (mov r8, r8)
 80007f0:	46bd      	mov	sp, r7
 80007f2:	b00b      	add	sp, #44	@ 0x2c
 80007f4:	bd90      	pop	{r4, r7, pc}
 80007f6:	46c0      	nop			@ (mov r8, r8)
 80007f8:	40013800 	.word	0x40013800
 80007fc:	40021000 	.word	0x40021000
 8000800:	200000b0 	.word	0x200000b0
 8000804:	40020030 	.word	0x40020030

08000808 <NMI_Handler>:
/******************************************************************************/
/**
  * @brief This function handles Non maskable interrupt.
  */
void NMI_Handler(void)
{
 8000808:	b580      	push	{r7, lr}
 800080a:	af00      	add	r7, sp, #0
  /* USER CODE BEGIN NonMaskableInt_IRQn 0 */

  /* USER CODE END NonMaskableInt_IRQn 0 */
  /* USER CODE BEGIN NonMaskableInt_IRQn 1 */
   while (1)
 800080c:	46c0      	nop			@ (mov r8, r8)
 800080e:	e7fd      	b.n	800080c <NMI_Handler+0x4>

08000810 <HardFault_Handler>:

/**
  * @brief This function handles Hard fault interrupt.
  */
void HardFault_Handler(void)
{
 8000810:	b580      	push	{r7, lr}
 8000812:	af00      	add	r7, sp, #0
  /* USER CODE BEGIN HardFault_IRQn 0 */

  /* USER CODE END HardFault_IRQn 0 */
  while (1)
 8000814:	46c0      	nop			@ (mov r8, r8)
 8000816:	e7fd      	b.n	8000814 <HardFault_Handler+0x4>

08000818 <SVC_Handler>:

/**
  * @brief This function handles System service call via SWI instruction.
  */
void SVC_Handler(void)
{
 8000818:	b580      	push	{r7, lr}
 800081a:	af00      	add	r7, sp, #0

  /* USER CODE END SVC_IRQn 0 */
  /* USER CODE BEGIN SVC_IRQn 1 */

  /* USER CODE END SVC_IRQn 1 */
}
 800081c:	46c0      	nop			@ (mov r8, r8)
 800081e:	46bd      	mov	sp, r7
 8000820:	bd80      	pop	{r7, pc}

08000822 <PendSV_Handler>:

/**
  * @brief This function handles Pendable request for system service.
  */
void PendSV_Handler(void)
{
 8000822:	b580      	push	{r7, lr}
 8000824:	af00      	add	r7, sp, #0

  /* USER CODE END PendSV_IRQn 0 */
  /* USER CODE BEGIN PendSV_IRQn 1 */

  /* USER CODE END PendSV_IRQn 1 */
}
 8000826:	46c0      	nop			@ (mov r8, r8)
 8000828:	46bd      	mov	sp, r7
 800082a:	bd80      	pop	{r7, pc}

0800082c <SysTick_Handler>:

/**
  * @brief This function handles System tick timer.
  */
void SysTick_Handler(void)
{
 800082c:	b580      	push	{r7, lr}
 800082e:	af00      	add	r7, sp, #0
  /* USER CODE BEGIN SysTick_IRQn 0 */

  /* USER CODE END SysTick_IRQn 0 */
  HAL_IncTick();
 8000830:	f000 f894 	bl	800095c <HAL_IncTick>
  /* USER CODE BEGIN SysTick_IRQn 1 */

  /* USER CODE END SysTick_IRQn 1 */
}
 8000834:	46c0      	nop			@ (mov r8, r8)
 8000836:	46bd      	mov	sp, r7
 8000838:	bd80      	pop	{r7, pc}
	...

0800083c <DMA1_Channel2_3_IRQHandler>:

/**
  * @brief This function handles DMA1 channel 2 and 3 interrupts.
  */
void DMA1_Channel2_3_IRQHandler(void)
{
 800083c:	b580      	push	{r7, lr}
 800083e:	af00      	add	r7, sp, #0
  /* USER CODE BEGIN DMA1_Channel2_3_IRQn 0 */

  /* USER CODE END DMA1_Channel2_3_IRQn 0 */
  HAL_DMA_IRQHandler(&hdma_usart1_rx);
 8000840:	4b03      	ldr	r3, [pc, #12]	@ (8000850 <DMA1_Channel2_3_IRQHandler+0x14>)
 8000842:	0018      	movs	r0, r3
 8000844:	f000 faaf 	bl	8000da6 <HAL_DMA_IRQHandler>
  /* USER CODE BEGIN DMA1_Channel2_3_IRQn 1 */

  /* USER CODE END DMA1_Channel2_3_IRQn 1 */
}
 8000848:	46c0      	nop			@ (mov r8, r8)
 800084a:	46bd      	mov	sp, r7
 800084c:	bd80      	pop	{r7, pc}
 800084e:	46c0      	nop			@ (mov r8, r8)
 8000850:	200000b0 	.word	0x200000b0

08000854 <USART1_IRQHandler>:

/**
  * @brief This function handles USART1 global interrupt / USART1 wake-up interrupt through EXTI line 25.
  */
void USART1_IRQHandler(void)
{
 8000854:	b580      	push	{r7, lr}
 8000856:	af00      	add	r7, sp, #0
  /* USER CODE BEGIN USART1_IRQn 0 */

  /* USER CODE END USART1_IRQn 0 */
  HAL_UART_IRQHandler(&huart1);
 8000858:	4b03      	ldr	r3, [pc, #12]	@ (8000868 <USART1_IRQHandler+0x14>)
 800085a:	0018      	movs	r0, r3
 800085c:	f001 fba2 	bl	8001fa4 <HAL_UART_IRQHandler>
  /* USER CODE BEGIN USART1_IRQn 1 */

  /* USER CODE END USART1_IRQn 1 */
}
 8000860:	46c0      	nop			@ (mov r8, r8)
 8000862:	46bd      	mov	sp, r7
 8000864:	bd80      	pop	{r7, pc}
 8000866:	46c0      	nop			@ (mov r8, r8)
 8000868:	20000028 	.word	0x20000028

0800086c <SystemInit>:
  * @brief  Setup the microcontroller system
  * @param  None
  * @retval None
  */
void SystemInit(void)
{
 800086c:	b580      	push	{r7, lr}
 800086e:	af00      	add	r7, sp, #0
                         before branch to main program. This call is made inside
                         the "startup_stm32f0xx.s" file.
                         User can setups the default system clock (System clock source, PLL Multiplier
                         and Divider factors, AHB/APBx prescalers and Flash settings).
   */
}
 8000870:	46c0      	nop			@ (mov r8, r8)
 8000872:	46bd      	mov	sp, r7
 8000874:	bd80      	pop	{r7, pc}
	...

08000878 <Reset_Handler>:
 8000878:	480d      	ldr	r0, [pc, #52]	@ (80008b0 <LoopForever+0x2>)
 800087a:	4685      	mov	sp, r0
 800087c:	f7ff fff6 	bl	800086c <SystemInit>
 8000880:	480c      	ldr	r0, [pc, #48]	@ (80008b4 <LoopForever+0x6>)
 8000882:	490d      	ldr	r1, [pc, #52]	@ (80008b8 <LoopForever+0xa>)
 8000884:	4a0d      	ldr	r2, [pc, #52]	@ (80008bc <LoopForever+0xe>)
 8000886:	2300      	movs	r3, #0
 8000888:	e002      	b.n	8000890 <LoopCopyDataInit>

0800088a <CopyDataInit>:
 800088a:	58d4      	ldr	r4, [r2, r3]
 800088c:	50c4      	str	r4, [r0, r3]
 800088e:	3304      	adds	r3, #4

08000890 <LoopCopyDataInit>:
 8000890:	18c4      	adds	r4, r0, r3
 8000892:	428c      	cmp	r4, r1
 8000894:	d3f9      	bcc.n	800088a <CopyDataInit>
 8000896:	4a0a      	ldr	r2, [pc, #40]	@ (80008c0 <LoopForever+0x12>)
 8000898:	4c0a      	ldr	r4, [pc, #40]	@ (80008c4 <LoopForever+0x16>)
 800089a:	2300      	movs	r3, #0
 800089c:	e001      	b.n	80008a2 <LoopFillZerobss>

0800089e <FillZerobss>:
 800089e:	6013      	str	r3, [r2, #0]
 80008a0:	3204      	adds	r2, #4

080008a2 <LoopFillZerobss>:
 80008a2:	42a2      	cmp	r2, r4
 80008a4:	d3fb      	bcc.n	800089e <FillZerobss>
 80008a6:	f002 fc01 	bl	80030ac <__libc_init_array>
 80008aa:	f7ff fcb9 	bl	8000220 <main>

080008ae <LoopForever>:
 80008ae:	e7fe      	b.n	80008ae <LoopForever>
 80008b0:	20002000 	.word	0x20002000
 80008b4:	20000000 	.word	0x20000000
 80008b8:	2000000c 	.word	0x2000000c
 80008bc:	08003160 	.word	0x08003160
 80008c0:	2000000c 	.word	0x2000000c
 80008c4:	20000100 	.word	0x20000100

080008c8 <ADC1_COMP_IRQHandler>:
 80008c8:	e7fe      	b.n	80008c8 <ADC1_COMP_IRQHandler>
	...

080008cc <HAL_Init>:
 80008cc:	b580      	push	{r7, lr}
 80008ce:	af00      	add	r7, sp, #0
 80008d0:	4b07      	ldr	r3, [pc, #28]	@ (80008f0 <HAL_Init+0x24>)
 80008d2:	681a      	ldr	r2, [r3, #0]
 80008d4:	4b06      	ldr	r3, [pc, #24]	@ (80008f0 <HAL_Init+0x24>)
 80008d6:	2110      	movs	r1, #16
 80008d8:	430a      	orrs	r2, r1
 80008da:	601a      	str	r2, [r3, #0]
 80008dc:	2003      	movs	r0, #3
 80008de:	f000 f809 	bl	80008f4 <HAL_InitTick>
 80008e2:	f7ff feed 	bl	80006c0 <HAL_MspInit>
 80008e6:	2300      	movs	r3, #0
 80008e8:	0018      	movs	r0, r3
 80008ea:	46bd      	mov	sp, r7
 80008ec:	bd80      	pop	{r7, pc}
 80008ee:	46c0      	nop			@ (mov r8, r8)
 80008f0:	40022000 	.word	0x40022000

080008f4 <HAL_InitTick>:
 80008f4:	b590      	push	{r4, r7, lr}
 80008f6:	b083      	sub	sp, #12
 80008f8:	af00      	add	r7, sp, #0
 80008fa:	6078      	str	r0, [r7, #4]
 80008fc:	4b14      	ldr	r3, [pc, #80]	@ (8000950 <HAL_InitTick+0x5c>)
 80008fe:	681c      	ldr	r4, [r3, #0]
 8000900:	4b14      	ldr	r3, [pc, #80]	@ (8000954 <HAL_InitTick+0x60>)
 8000902:	781b      	ldrb	r3, [r3, #0]
 8000904:	0019      	movs	r1, r3
 8000906:	23fa      	movs	r3, #250	@ 0xfa
 8000908:	0098      	lsls	r0, r3, #2
 800090a:	f7ff fbfd 	bl	8000108 <__udivsi3>
 800090e:	0003      	movs	r3, r0
 8000910:	0019      	movs	r1, r3
 8000912:	0020      	movs	r0, r4
 8000914:	f7ff fbf8 	bl	8000108 <__udivsi3>
 8000918:	0003      	movs	r3, r0
 800091a:	0018      	movs	r0, r3
 800091c:	f000 f90b 	bl	8000b36 <HAL_SYSTICK_Config>
 8000920:	1e03      	subs	r3, r0, #0
 8000922:	d001      	beq.n	8000928 <HAL_InitTick+0x34>
 8000924:	2301      	movs	r3, #1
 8000926:	e00f      	b.n	8000948 <HAL_InitTick+0x54>
 8000928:	687b      	ldr	r3, [r7, #4]
 800092a:	2b03      	cmp	r3, #3
 800092c:	d80b      	bhi.n	8000946 <HAL_InitTick+0x52>
 800092e:	6879      	ldr	r1, [r7, #4]
 8000930:	2301      	movs	r3, #1
 8000932:	425b      	negs	r3, r3
 8000934:	2200      	movs	r2, #0
 8000936:	0018      	movs	r0, r3
 8000938:	f000 f8d8 	bl	8000aec <HAL_NVIC_SetPriority>
 800093c:	4b06      	ldr	r3, [pc, #24]	@ (8000958 <HAL_InitTick+0x64>)
 800093e:	687a      	ldr	r2, [r7, #4]
 8000940:	601a      	str	r2, [r3, #0]
 8000942:	2300      	movs	r3, #0
 8000944:	e000      	b.n	8000948 <HAL_InitTick+0x54>
 8000946:	2301      	movs	r3, #1
 8000948:	0018      	movs	r0, r3
 800094a:	46bd      	mov	sp, r7
 800094c:	b003      	add	sp, #12
 800094e:	bd90      	pop	{r4, r7, pc}
 8000950:	20000000 	.word	0x20000000
 8000954:	20000008 	.word	0x20000008
 8000958:	20000004 	.word	0x20000004

0800095c <HAL_IncTick>:
 800095c:	b580      	push	{r7, lr}
 800095e:	af00      	add	r7, sp, #0
 8000960:	4b05      	ldr	r3, [pc, #20]	@ (8000978 <HAL_IncTick+0x1c>)
 8000962:	781b      	ldrb	r3, [r3, #0]
 8000964:	001a      	movs	r2, r3
 8000966:	4b05      	ldr	r3, [pc, #20]	@ (800097c <HAL_IncTick+0x20>)
 8000968:	681b      	ldr	r3, [r3, #0]
 800096a:	18d2      	adds	r2, r2, r3
 800096c:	4b03      	ldr	r3, [pc, #12]	@ (800097c <HAL_IncTick+0x20>)
 800096e:	601a      	str	r2, [r3, #0]
 8000970:	46c0      	nop			@ (mov r8, r8)
 8000972:	46bd      	mov	sp, r7
 8000974:	bd80      	pop	{r7, pc}
 8000976:	46c0      	nop			@ (mov r8, r8)
 8000978:	20000008 	.word	0x20000008
 800097c:	200000fc 	.word	0x200000fc

08000980 <HAL_GetTick>:
 8000980:	b580      	push	{r7, lr}
 8000982:	af00      	add	r7, sp, #0
 8000984:	4b02      	ldr	r3, [pc, #8]	@ (8000990 <HAL_GetTick+0x10>)
 8000986:	681b      	ldr	r3, [r3, #0]
 8000988:	0018      	movs	r0, r3
 800098a:	46bd      	mov	sp, r7
 800098c:	bd80      	pop	{r7, pc}
 800098e:	46c0      	nop			@ (mov r8, r8)
 8000990:	200000fc 	.word	0x200000fc

08000994 <__NVIC_EnableIRQ>:
 8000994:	b580      	push	{r7, lr}
 8000996:	b082      	sub	sp, #8
 8000998:	af00      	add	r7, sp, #0
 800099a:	0002      	movs	r2, r0
 800099c:	1dfb      	adds	r3, r7, #7
 800099e:	701a      	strb	r2, [r3, #0]
 80009a0:	1dfb      	adds	r3, r7, #7
 80009a2:	781b      	ldrb	r3, [r3, #0]
 80009a4:	2b7f      	cmp	r3, #127	@ 0x7f
 80009a6:	d809      	bhi.n	80009bc <__NVIC_EnableIRQ+0x28>
 80009a8:	1dfb      	adds	r3, r7, #7
 80009aa:	781b      	ldrb	r3, [r3, #0]
 80009ac:	001a      	movs	r2, r3
 80009ae:	231f      	movs	r3, #31
 80009b0:	401a      	ands	r2, r3
 80009b2:	4b04      	ldr	r3, [pc, #16]	@ (80009c4 <__NVIC_EnableIRQ+0x30>)
 80009b4:	2101      	movs	r1, #1
 80009b6:	4091      	lsls	r1, r2
 80009b8:	000a      	movs	r2, r1
 80009ba:	601a      	str	r2, [r3, #0]
 80009bc:	46c0      	nop			@ (mov r8, r8)
 80009be:	46bd      	mov	sp, r7
 80009c0:	b002      	add	sp, #8
 80009c2:	bd80      	pop	{r7, pc}
 80009c4:	e000e100 	.word	0xe000e100

080009c8 <__NVIC_SetPriority>:
 80009c8:	b590      	push	{r4, r7, lr}
 80009ca:	b083      	sub	sp, #12
 80009cc:	af00      	add	r7, sp, #0
 80009ce:	0002      	movs	r2, r0
 80009d0:	6039      	str	r1, [r7, #0]
 80009d2:	1dfb      	adds	r3, r7, #7
 80009d4:	701a      	strb	r2, [r3, #0]
 80009d6:	1dfb      	adds	r3, r7, #7
 80009d8:	781b      	ldrb	r3, [r3, #0]
 80009da:	2b7f      	cmp	r3, #127	@ 0x7f
 80009dc:	d828      	bhi.n	8000a30 <__NVIC_SetPriority+0x68>
 80009de:	4a2f      	ldr	r2, [pc, #188]	@ (8000a9c <__NVIC_SetPriority+0xd4>)
 80009e0:	1dfb      	adds	r3, r7, #7
 80009e2:	781b      	ldrb	r3, [r3, #0]
 80009e4:	b25b      	sxtb	r3, r3
 80009e6:	089b      	lsrs	r3, r3, #2
 80009e8:	33c0      	adds	r3, #192	@ 0xc0
 80009ea:	009b      	lsls	r3, r3, #2
 80009ec:	589b      	ldr	r3, [r3, r2]
 80009ee:	1dfa      	adds	r2, r7, #7
 80009f0:	7812      	ldrb	r2, [r2, #0]
 80009f2:	0011      	movs	r1, r2
 80009f4:	2203      	movs	r2, #3
 80009f6:	400a      	ands	r2, r1
 80009f8:	00d2      	lsls	r2, r2, #3
 80009fa:	21ff      	movs	r1, #255	@ 0xff
 80009fc:	4091      	lsls	r1, r2
 80009fe:	000a      	movs	r2, r1
 8000a00:	43d2      	mvns	r2, r2
 8000a02:	401a      	ands	r2, r3
 8000a04:	0011      	movs	r1, r2
 8000a06:	683b      	ldr	r3, [r7, #0]
 8000a08:	019b      	lsls	r3, r3, #6
 8000a0a:	22ff      	movs	r2, #255	@ 0xff
 8000a0c:	401a      	ands	r2, r3
 8000a0e:	1dfb      	adds	r3, r7, #7
 8000a10:	781b      	ldrb	r3, [r3, #0]
 8000a12:	0018      	movs	r0, r3
 8000a14:	2303      	movs	r3, #3
 8000a16:	4003      	ands	r3, r0
 8000a18:	00db      	lsls	r3, r3, #3
 8000a1a:	409a      	lsls	r2, r3
 8000a1c:	481f      	ldr	r0, [pc, #124]	@ (8000a9c <__NVIC_SetPriority+0xd4>)
 8000a1e:	1dfb      	adds	r3, r7, #7
 8000a20:	781b      	ldrb	r3, [r3, #0]
 8000a22:	b25b      	sxtb	r3, r3
 8000a24:	089b      	lsrs	r3, r3, #2
 8000a26:	430a      	orrs	r2, r1
 8000a28:	33c0      	adds	r3, #192	@ 0xc0
 8000a2a:	009b      	lsls	r3, r3, #2
 8000a2c:	501a      	str	r2, [r3, r0]
 8000a2e:	e031      	b.n	8000a94 <__NVIC_SetPriority+0xcc>
 8000a30:	4a1b      	ldr	r2, [pc, #108]	@ (8000aa0 <__NVIC_SetPriority+0xd8>)
 8000a32:	1dfb      	adds	r3, r7, #7
 8000a34:	781b      	ldrb	r3, [r3, #0]
 8000a36:	0019      	movs	r1, r3
 8000a38:	230f      	movs	r3, #15
 8000a3a:	400b      	ands	r3, r1
 8000a3c:	3b08      	subs	r3, #8
 8000a3e:	089b      	lsrs	r3, r3, #2
 8000a40:	3306      	adds	r3, #6
 8000a42:	009b      	lsls	r3, r3, #2
 8000a44:	18d3      	adds	r3, r2, r3
 8000a46:	3304      	adds	r3, #4
 8000a48:	681b      	ldr	r3, [r3, #0]
 8000a4a:	1dfa      	adds	r2, r7, #7
 8000a4c:	7812      	ldrb	r2, [r2, #0]
 8000a4e:	0011      	movs	r1, r2
 8000a50:	2203      	movs	r2, #3
 8000a52:	400a      	ands	r2, r1
 8000a54:	00d2      	lsls	r2, r2, #3
 8000a56:	21ff      	movs	r1, #255	@ 0xff
 8000a58:	4091      	lsls	r1, r2
 8000a5a:	000a      	movs	r2, r1
 8000a5c:	43d2      	mvns	r2, r2
 8000a5e:	401a      	ands	r2, r3
 8000a60:	0011      	movs	r1, r2
 8000a62:	683b      	ldr	r3, [r7, #0]
 8000a64:	019b      	lsls	r3, r3, #6
 8000a66:	22ff      	movs	r2, #255	@ 0xff
 8000a68:	401a      	ands	r2, r3
 8000a6a:	1dfb      	adds	r3, r7, #7
 8000a6c:	781b      	ldrb	r3, [r3, #0]
 8000a6e:	0018      	movs	r0, r3
 8000a70:	2303      	movs	r3, #3
 8000a72:	4003      	ands	r3, r0
 8000a74:	00db      	lsls	r3, r3, #3
 8000a76:	409a      	lsls	r2, r3
 8000a78:	4809      	ldr	r0, [pc, #36]	@ (8000aa0 <__NVIC_SetPriority+0xd8>)
 8000a7a:	1dfb      	adds	r3, r7, #7
 8000a7c:	781b      	ldrb	r3, [r3, #0]
 8000a7e:	001c      	movs	r4, r3
 8000a80:	230f      	movs	r3, #15
 8000a82:	4023      	ands	r3, r4
 8000a84:	3b08      	subs	r3, #8
 8000a86:	089b      	lsrs	r3, r3, #2
 8000a88:	430a      	orrs	r2, r1
 8000a8a:	3306      	adds	r3, #6
 8000a8c:	009b      	lsls	r3, r3, #2
 8000a8e:	18c3      	adds	r3, r0, r3
 8000a90:	3304      	adds	r3, #4
 8000a92:	601a      	str	r2, [r3, #0]
 8000a94:	46c0      	nop			@ (mov r8, r8)
 8000a96:	46bd      	mov	sp, r7
 8000a98:	b003      	add	sp, #12
 8000a9a:	bd90      	pop	{r4, r7, pc}
 8000a9c:	e000e100 	.word	0xe000e100
 8000aa0:	e000ed00 	.word	0xe000ed00

08000aa4 <SysTick_Config>:
 8000aa4:	b580      	push	{r7, lr}
 8000aa6:	b082      	sub	sp, #8
 8000aa8:	af00      	add	r7, sp, #0
 8000aaa:	6078      	str	r0, [r7, #4]
 8000aac:	687b      	ldr	r3, [r7, #4]
 8000aae:	1e5a      	subs	r2, r3, #1
 8000ab0:	2380      	movs	r3, #128	@ 0x80
 8000ab2:	045b      	lsls	r3, r3, #17
 8000ab4:	429a      	cmp	r2, r3
 8000ab6:	d301      	bcc.n	8000abc <SysTick_Config+0x18>
 8000ab8:	2301      	movs	r3, #1
 8000aba:	e010      	b.n	8000ade <SysTick_Config+0x3a>
 8000abc:	4b0a      	ldr	r3, [pc, #40]	@ (8000ae8 <SysTick_Config+0x44>)
 8000abe:	687a      	ldr	r2, [r7, #4]
 8000ac0:	3a01      	subs	r2, #1
 8000ac2:	605a      	str	r2, [r3, #4]
 8000ac4:	2301      	movs	r3, #1
 8000ac6:	425b      	negs	r3, r3
 8000ac8:	2103      	movs	r1, #3
 8000aca:	0018      	movs	r0, r3
 8000acc:	f7ff ff7c 	bl	80009c8 <__NVIC_SetPriority>
 8000ad0:	4b05      	ldr	r3, [pc, #20]	@ (8000ae8 <SysTick_Config+0x44>)
 8000ad2:	2200      	movs	r2, #0
 8000ad4:	609a      	str	r2, [r3, #8]
 8000ad6:	4b04      	ldr	r3, [pc, #16]	@ (8000ae8 <SysTick_Config+0x44>)
 8000ad8:	2207      	movs	r2, #7
 8000ada:	601a      	str	r2, [r3, #0]
 8000adc:	2300      	movs	r3, #0
 8000ade:	0018      	movs	r0, r3
 8000ae0:	46bd      	mov	sp, r7
 8000ae2:	b002      	add	sp, #8
 8000ae4:	bd80      	pop	{r7, pc}
 8000ae6:	46c0      	nop			@ (mov r8, r8)
 8000ae8:	e000e010 	.word	0xe000e010

08000aec <HAL_NVIC_SetPriority>:
 8000aec:	b580      	push	{r7, lr}
 8000aee:	b084      	sub	sp, #16
 8000af0:	af00      	add	r7, sp, #0
 8000af2:	60b9      	str	r1, [r7, #8]
 8000af4:	607a      	str	r2, [r7, #4]
 8000af6:	210f      	movs	r1, #15
 8000af8:	187b      	adds	r3, r7, r1
 8000afa:	1c02      	adds	r2, r0, #0
 8000afc:	701a      	strb	r2, [r3, #0]
 8000afe:	68ba      	ldr	r2, [r7, #8]
 8000b00:	187b      	adds	r3, r7, r1
 8000b02:	781b      	ldrb	r3, [r3, #0]
 8000b04:	b25b      	sxtb	r3, r3
 8000b06:	0011      	movs	r1, r2
 8000b08:	0018      	movs	r0, r3
 8000b0a:	f7ff ff5d 	bl	80009c8 <__NVIC_SetPriority>
 8000b0e:	46c0      	nop			@ (mov r8, r8)
 8000b10:	46bd      	mov	sp, r7
 8000b12:	b004      	add	sp, #16
 8000b14:	bd80      	pop	{r7, pc}

08000b16 <HAL_NVIC_EnableIRQ>:
 8000b16:	b580      	push	{r7, lr}
 8000b18:	b082      	sub	sp, #8
 8000b1a:	af00      	add	r7, sp, #0
 8000b1c:	0002      	movs	r2, r0
 8000b1e:	1dfb      	adds	r3, r7, #7
 8000b20:	701a      	strb	r2, [r3, #0]
 8000b22:	1dfb      	adds	r3, r7, #7
 8000b24:	781b      	ldrb	r3, [r3, #0]
 8000b26:	b25b      	sxtb	r3, r3
 8000b28:	0018      	movs	r0, r3
 8000b2a:	f7ff ff33 	bl	8000994 <__NVIC_EnableIRQ>
 8000b2e:	46c0      	nop			@ (mov r8, r8)
 8000b30:	46bd      	mov	sp, r7
 8000b32:	b002      	add	sp, #8
 8000b34:	bd80      	pop	{r7, pc}

08000b36 <HAL_SYSTICK_Config>:
 8000b36:	b580      	push	{r7, lr}
 8000b38:	b082      	sub	sp, #8
 8000b3a:	af00      	add	r7, sp, #0
 8000b3c:	6078      	str	r0, [r7, #4]
 8000b3e:	687b      	ldr	r3, [r7, #4]
 8000b40:	0018      	movs	r0, r3
 8000b42:	f7ff ffaf 	bl	8000aa4 <SysTick_Config>
 8000b46:	0003      	movs	r3, r0
 8000b48:	0018      	movs	r0, r3
 8000b4a:	46bd      	mov	sp, r7
 8000b4c:	b002      	add	sp, #8
 8000b4e:	bd80      	pop	{r7, pc}

08000b50 <HAL_DMA_Init>:
 8000b50:	b580      	push	{r7, lr}
 8000b52:	b084      	sub	sp, #16
 8000b54:	af00      	add	r7, sp, #0
 8000b56:	6078      	str	r0, [r7, #4]
 8000b58:	2300      	movs	r3, #0
 8000b5a:	60fb      	str	r3, [r7, #12]
 8000b5c:	687b      	ldr	r3, [r7, #4]
 8000b5e:	2b00      	cmp	r3, #0
 8000b60:	d101      	bne.n	8000b66 <HAL_DMA_Init+0x16>
 8000b62:	2301      	movs	r3, #1
 8000b64:	e036      	b.n	8000bd4 <HAL_DMA_Init+0x84>
 8000b66:	687b      	ldr	r3, [r7, #4]
 8000b68:	2221      	movs	r2, #33	@ 0x21
 8000b6a:	2102      	movs	r1, #2
 8000b6c:	5499      	strb	r1, [r3, r2]
 8000b6e:	687b      	ldr	r3, [r7, #4]
 8000b70:	681b      	ldr	r3, [r3, #0]
 8000b72:	681b      	ldr	r3, [r3, #0]
 8000b74:	60fb      	str	r3, [r7, #12]
 8000b76:	68fb      	ldr	r3, [r7, #12]
 8000b78:	4a18      	ldr	r2, [pc, #96]	@ (8000bdc <HAL_DMA_Init+0x8c>)
 8000b7a:	4013      	ands	r3, r2
 8000b7c:	60fb      	str	r3, [r7, #12]
 8000b7e:	687b      	ldr	r3, [r7, #4]
 8000b80:	685a      	ldr	r2, [r3, #4]
 8000b82:	687b      	ldr	r3, [r7, #4]
 8000b84:	689b      	ldr	r3, [r3, #8]
 8000b86:	431a      	orrs	r2, r3
 8000b88:	687b      	ldr	r3, [r7, #4]
 8000b8a:	68db      	ldr	r3, [r3, #12]
 8000b8c:	431a      	orrs	r2, r3
 8000b8e:	687b      	ldr	r3, [r7, #4]
 8000b90:	691b      	ldr	r3, [r3, #16]
 8000b92:	431a      	orrs	r2, r3
 8000b94:	687b      	ldr	r3, [r7, #4]
 8000b96:	695b      	ldr	r3, [r3, #20]
 8000b98:	431a      	orrs	r2, r3
 8000b9a:	687b      	ldr	r3, [r7, #4]
 8000b9c:	699b      	ldr	r3, [r3, #24]
 8000b9e:	431a      	orrs	r2, r3
 8000ba0:	687b      	ldr	r3, [r7, #4]
 8000ba2:	69db      	ldr	r3, [r3, #28]
 8000ba4:	4313      	orrs	r3, r2
 8000ba6:	68fa      	ldr	r2, [r7, #12]
 8000ba8:	4313      	orrs	r3, r2
 8000baa:	60fb      	str	r3, [r7, #12]
 8000bac:	687b      	ldr	r3, [r7, #4]
 8000bae:	681b      	ldr	r3, [r3, #0]
 8000bb0:	68fa      	ldr	r2, [r7, #12]
 8000bb2:	601a      	str	r2, [r3, #0]
 8000bb4:	687b      	ldr	r3, [r7, #4]
 8000bb6:	0018      	movs	r0, r3
 8000bb8:	f000 f9c4 	bl	8000f44 <DMA_CalcBaseAndBitshift>
 8000bbc:	687b      	ldr	r3, [r7, #4]
 8000bbe:	2200      	movs	r2, #0
 8000bc0:	639a      	str	r2, [r3, #56]	@ 0x38
 8000bc2:	687b      	ldr	r3, [r7, #4]
 8000bc4:	2221      	movs	r2, #33	@ 0x21
 8000bc6:	2101      	movs	r1, #1
 8000bc8:	5499      	strb	r1, [r3, r2]
 8000bca:	687b      	ldr	r3, [r7, #4]
 8000bcc:	2220      	movs	r2, #32
 8000bce:	2100      	movs	r1, #0
 8000bd0:	5499      	strb	r1, [r3, r2]
 8000bd2:	2300      	movs	r3, #0
 8000bd4:	0018      	movs	r0, r3
 8000bd6:	46bd      	mov	sp, r7
 8000bd8:	b004      	add	sp, #16
 8000bda:	bd80      	pop	{r7, pc}
 8000bdc:	ffffc00f 	.word	0xffffc00f

08000be0 <HAL_DMA_Start_IT>:
 8000be0:	b580      	push	{r7, lr}
 8000be2:	b086      	sub	sp, #24
 8000be4:	af00      	add	r7, sp, #0
 8000be6:	60f8      	str	r0, [r7, #12]
 8000be8:	60b9      	str	r1, [r7, #8]
 8000bea:	607a      	str	r2, [r7, #4]
 8000bec:	603b      	str	r3, [r7, #0]
 8000bee:	2317      	movs	r3, #23
 8000bf0:	18fb      	adds	r3, r7, r3
 8000bf2:	2200      	movs	r2, #0
 8000bf4:	701a      	strb	r2, [r3, #0]
 8000bf6:	68fb      	ldr	r3, [r7, #12]
 8000bf8:	2220      	movs	r2, #32
 8000bfa:	5c9b      	ldrb	r3, [r3, r2]
 8000bfc:	2b01      	cmp	r3, #1
 8000bfe:	d101      	bne.n	8000c04 <HAL_DMA_Start_IT+0x24>
 8000c00:	2302      	movs	r3, #2
 8000c02:	e04f      	b.n	8000ca4 <HAL_DMA_Start_IT+0xc4>
 8000c04:	68fb      	ldr	r3, [r7, #12]
 8000c06:	2220      	movs	r2, #32
 8000c08:	2101      	movs	r1, #1
 8000c0a:	5499      	strb	r1, [r3, r2]
 8000c0c:	68fb      	ldr	r3, [r7, #12]
 8000c0e:	2221      	movs	r2, #33	@ 0x21
 8000c10:	5c9b      	ldrb	r3, [r3, r2]
 8000c12:	b2db      	uxtb	r3, r3
 8000c14:	2b01      	cmp	r3, #1
 8000c16:	d13a      	bne.n	8000c8e <HAL_DMA_Start_IT+0xae>
 8000c18:	68fb      	ldr	r3, [r7, #12]
 8000c1a:	2221      	movs	r2, #33	@ 0x21
 8000c1c:	2102      	movs	r1, #2
 8000c1e:	5499      	strb	r1, [r3, r2]
 8000c20:	68fb      	ldr	r3, [r7, #12]
 8000c22:	2200      	movs	r2, #0
 8000c24:	639a      	str	r2, [r3, #56]	@ 0x38
 8000c26:	68fb      	ldr	r3, [r7, #12]
 8000c28:	681b      	ldr	r3, [r3, #0]
 8000c2a:	681a      	ldr	r2, [r3, #0]
 8000c2c:	68fb      	ldr	r3, [r7, #12]
 8000c2e:	681b      	ldr	r3, [r3, #0]
 8000c30:	2101      	movs	r1, #1
 8000c32:	438a      	bics	r2, r1
 8000c34:	601a      	str	r2, [r3, #0]
 8000c36:	683b      	ldr	r3, [r7, #0]
 8000c38:	687a      	ldr	r2, [r7, #4]
 8000c3a:	68b9      	ldr	r1, [r7, #8]
 8000c3c:	68f8      	ldr	r0, [r7, #12]
 8000c3e:	f000 f954 	bl	8000eea <DMA_SetConfig>
 8000c42:	68fb      	ldr	r3, [r7, #12]
 8000c44:	6adb      	ldr	r3, [r3, #44]	@ 0x2c
 8000c46:	2b00      	cmp	r3, #0
 8000c48:	d008      	beq.n	8000c5c <HAL_DMA_Start_IT+0x7c>
 8000c4a:	68fb      	ldr	r3, [r7, #12]
 8000c4c:	681b      	ldr	r3, [r3, #0]
 8000c4e:	681a      	ldr	r2, [r3, #0]
 8000c50:	68fb      	ldr	r3, [r7, #12]
 8000c52:	681b      	ldr	r3, [r3, #0]
 8000c54:	210e      	movs	r1, #14
 8000c56:	430a      	orrs	r2, r1
 8000c58:	601a      	str	r2, [r3, #0]
 8000c5a:	e00f      	b.n	8000c7c <HAL_DMA_Start_IT+0x9c>
 8000c5c:	68fb      	ldr	r3, [r7, #12]
 8000c5e:	681b      	ldr	r3, [r3, #0]
 8000c60:	681a      	ldr	r2, [r3, #0]
 8000c62:	68fb      	ldr	r3, [r7, #12]
 8000c64:	681b      	ldr	r3, [r3, #0]
 8000c66:	210a      	movs	r1, #10
 8000c68:	430a      	orrs	r2, r1
 8000c6a:	601a      	str	r2, [r3, #0]
 8000c6c:	68fb      	ldr	r3, [r7, #12]
 8000c6e:	681b      	ldr	r3, [r3, #0]
 8000c70:	681a      	ldr	r2, [r3, #0]
 8000c72:	68fb      	ldr	r3, [r7, #12]
 8000c74:	681b      	ldr	r3, [r3, #0]
 8000c76:	2104      	movs	r1, #4
 8000c78:	438a      	bics	r2, r1
 8000c7a:	601a      	str	r2, [r3, #0]
 8000c7c:	68fb      	ldr	r3, [r7, #12]
 8000c7e:	681b      	ldr	r3, [r3, #0]
 8000c80:	681a      	ldr	r2, [r3, #0]
 8000c82:	68fb      	ldr	r3, [r7, #12]
 8000c84:	681b      	ldr	r3, [r3, #0]
 8000c86:	2101      	movs	r1, #1
 8000c88:	430a      	orrs	r2, r1
 8000c8a:	601a      	str	r2, [r3, #0]
 8000c8c:	e007      	b.n	8000c9e <HAL_DMA_Start_IT+0xbe>
 8000c8e:	68fb      	ldr	r3, [r7, #12]
 8000c90:	2220      	movs	r2, #32
 8000c92:	2100      	movs	r1, #0
 8000c94:	5499      	strb	r1, [r3, r2]
 8000c96:	2317      	movs	r3, #23
 8000c98:	18fb      	adds	r3, r7, r3
 8000c9a:	2202      	movs	r2, #2
 8000c9c:	701a      	strb	r2, [r3, #0]
 8000c9e:	2317      	movs	r3, #23
 8000ca0:	18fb      	adds	r3, r7, r3
 8000ca2:	781b      	ldrb	r3, [r3, #0]
 8000ca4:	0018      	movs	r0, r3
 8000ca6:	46bd      	mov	sp, r7
 8000ca8:	b006      	add	sp, #24
 8000caa:	bd80      	pop	{r7, pc}

08000cac <HAL_DMA_Abort>:
 8000cac:	b580      	push	{r7, lr}
 8000cae:	b082      	sub	sp, #8
 8000cb0:	af00      	add	r7, sp, #0
 8000cb2:	6078      	str	r0, [r7, #4]
 8000cb4:	687b      	ldr	r3, [r7, #4]
 8000cb6:	2221      	movs	r2, #33	@ 0x21
 8000cb8:	5c9b      	ldrb	r3, [r3, r2]
 8000cba:	b2db      	uxtb	r3, r3
 8000cbc:	2b02      	cmp	r3, #2
 8000cbe:	d008      	beq.n	8000cd2 <HAL_DMA_Abort+0x26>
 8000cc0:	687b      	ldr	r3, [r7, #4]
 8000cc2:	2204      	movs	r2, #4
 8000cc4:	639a      	str	r2, [r3, #56]	@ 0x38
 8000cc6:	687b      	ldr	r3, [r7, #4]
 8000cc8:	2220      	movs	r2, #32
 8000cca:	2100      	movs	r1, #0
 8000ccc:	5499      	strb	r1, [r3, r2]
 8000cce:	2301      	movs	r3, #1
 8000cd0:	e020      	b.n	8000d14 <HAL_DMA_Abort+0x68>
 8000cd2:	687b      	ldr	r3, [r7, #4]
 8000cd4:	681b      	ldr	r3, [r3, #0]
 8000cd6:	681a      	ldr	r2, [r3, #0]
 8000cd8:	687b      	ldr	r3, [r7, #4]
 8000cda:	681b      	ldr	r3, [r3, #0]
 8000cdc:	210e      	movs	r1, #14
 8000cde:	438a      	bics	r2, r1
 8000ce0:	601a      	str	r2, [r3, #0]
 8000ce2:	687b      	ldr	r3, [r7, #4]
 8000ce4:	681b      	ldr	r3, [r3, #0]
 8000ce6:	681a      	ldr	r2, [r3, #0]
 8000ce8:	687b      	ldr	r3, [r7, #4]
 8000cea:	681b      	ldr	r3, [r3, #0]
 8000cec:	2101      	movs	r1, #1
 8000cee:	438a      	bics	r2, r1
 8000cf0:	601a      	str	r2, [r3, #0]
 8000cf2:	687b      	ldr	r3, [r7, #4]
 8000cf4:	6c1a      	ldr	r2, [r3, #64]	@ 0x40
 8000cf6:	687b      	ldr	r3, [r7, #4]
 8000cf8:	6bdb      	ldr	r3, [r3, #60]	@ 0x3c
 8000cfa:	2101      	movs	r1, #1
 8000cfc:	4091      	lsls	r1, r2
 8000cfe:	000a      	movs	r2, r1
 8000d00:	605a      	str	r2, [r3, #4]
 8000d02:	687b      	ldr	r3, [r7, #4]
 8000d04:	2221      	movs	r2, #33	@ 0x21
 8000d06:	2101      	movs	r1, #1
 8000d08:	5499      	strb	r1, [r3, r2]
 8000d0a:	687b      	ldr	r3, [r7, #4]
 8000d0c:	2220      	movs	r2, #32
 8000d0e:	2100      	movs	r1, #0
 8000d10:	5499      	strb	r1, [r3, r2]
 8000d12:	2300      	movs	r3, #0
 8000d14:	0018      	movs	r0, r3
 8000d16:	46bd      	mov	sp, r7
 8000d18:	b002      	add	sp, #8
 8000d1a:	bd80      	pop	{r7, pc}

08000d1c <HAL_DMA_Abort_IT>:
 8000d1c:	b580      	push	{r7, lr}
 8000d1e:	b084      	sub	sp, #16
 8000d20:	af00      	add	r7, sp, #0
 8000d22:	6078      	str	r0, [r7, #4]
 8000d24:	210f      	movs	r1, #15
 8000d26:	187b      	adds	r3, r7, r1
 8000d28:	2200      	movs	r2, #0
 8000d2a:	701a      	strb	r2, [r3, #0]
 8000d2c:	687b      	ldr	r3, [r7, #4]
 8000d2e:	2221      	movs	r2, #33	@ 0x21
 8000d30:	5c9b      	ldrb	r3, [r3, r2]
 8000d32:	b2db      	uxtb	r3, r3
 8000d34:	2b02      	cmp	r3, #2
 8000d36:	d006      	beq.n	8000d46 <HAL_DMA_Abort_IT+0x2a>
 8000d38:	687b      	ldr	r3, [r7, #4]
 8000d3a:	2204      	movs	r2, #4
 8000d3c:	639a      	str	r2, [r3, #56]	@ 0x38
 8000d3e:	187b      	adds	r3, r7, r1
 8000d40:	2201      	movs	r2, #1
 8000d42:	701a      	strb	r2, [r3, #0]
 8000d44:	e028      	b.n	8000d98 <HAL_DMA_Abort_IT+0x7c>
 8000d46:	687b      	ldr	r3, [r7, #4]
 8000d48:	681b      	ldr	r3, [r3, #0]
 8000d4a:	681a      	ldr	r2, [r3, #0]
 8000d4c:	687b      	ldr	r3, [r7, #4]
 8000d4e:	681b      	ldr	r3, [r3, #0]
 8000d50:	210e      	movs	r1, #14
 8000d52:	438a      	bics	r2, r1
 8000d54:	601a      	str	r2, [r3, #0]
 8000d56:	687b      	ldr	r3, [r7, #4]
 8000d58:	681b      	ldr	r3, [r3, #0]
 8000d5a:	681a      	ldr	r2, [r3, #0]
 8000d5c:	687b      	ldr	r3, [r7, #4]
 8000d5e:	681b      	ldr	r3, [r3, #0]
 8000d60:	2101      	movs	r1, #1
 8000d62:	438a      	bics	r2, r1
 8000d64:	601a      	str	r2, [r3, #0]
 8000d66:	687b      	ldr	r3, [r7, #4]
 8000d68:	6c1a      	ldr	r2, [r3, #64]	@ 0x40
 8000d6a:	687b      	ldr	r3, [r7, #4]
 8000d6c:	6bdb      	ldr	r3, [r3, #60]	@ 0x3c
 8000d6e:	2101      	movs	r1, #1
 8000d70:	4091      	lsls	r1, r2
 8000d72:	000a      	movs	r2, r1
 8000d74:	605a      	str	r2, [r3, #4]
 8000d76:	687b      	ldr	r3, [r7, #4]
 8000d78:	2221      	movs	r2, #33	@ 0x21
 8000d7a:	2101      	movs	r1, #1
 8000d7c:	5499      	strb	r1, [r3, r2]
 8000d7e:	687b      	ldr	r3, [r7, #4]
 8000d80:	2220      	movs	r2, #32
 8000d82:	2100      	movs	r1, #0
 8000d84:	5499      	strb	r1, [r3, r2]
 8000d86:	687b      	ldr	r3, [r7, #4]
 8000d88:	6b5b      	ldr	r3, [r3, #52]	@ 0x34
 8000d8a:	2b00      	cmp	r3, #0
 8000d8c:	d004      	beq.n	8000d98 <HAL_DMA_Abort_IT+0x7c>
 8000d8e:	687b      	ldr	r3, [r7, #4]
 8000d90:	6b5b      	ldr	r3, [r3, #52]	@ 0x34
 8000d92:	687a      	ldr	r2, [r7, #4]
 8000d94:	0010      	movs	r0, r2
 8000d96:	4798      	blx	r3
 8000d98:	230f      	movs	r3, #15
 8000d9a:	18fb      	adds	r3, r7, r3
 8000d9c:	781b      	ldrb	r3, [r3, #0]
 8000d9e:	0018      	movs	r0, r3
 8000da0:	46bd      	mov	sp, r7
 8000da2:	b004      	add	sp, #16
 8000da4:	bd80      	pop	{r7, pc}

08000da6 <HAL_DMA_IRQHandler>:
 8000da6:	b580      	push	{r7, lr}
 8000da8:	b084      	sub	sp, #16
 8000daa:	af00      	add	r7, sp, #0
 8000dac:	6078      	str	r0, [r7, #4]
 8000dae:	687b      	ldr	r3, [r7, #4]
 8000db0:	6bdb      	ldr	r3, [r3, #60]	@ 0x3c
 8000db2:	681b      	ldr	r3, [r3, #0]
 8000db4:	60fb      	str	r3, [r7, #12]
 8000db6:	687b      	ldr	r3, [r7, #4]
 8000db8:	681b      	ldr	r3, [r3, #0]
 8000dba:	681b      	ldr	r3, [r3, #0]
 8000dbc:	60bb      	str	r3, [r7, #8]
 8000dbe:	687b      	ldr	r3, [r7, #4]
 8000dc0:	6c1b      	ldr	r3, [r3, #64]	@ 0x40
 8000dc2:	2204      	movs	r2, #4
 8000dc4:	409a      	lsls	r2, r3
 8000dc6:	0013      	movs	r3, r2
 8000dc8:	68fa      	ldr	r2, [r7, #12]
 8000dca:	4013      	ands	r3, r2
 8000dcc:	d024      	beq.n	8000e18 <HAL_DMA_IRQHandler+0x72>
 8000dce:	68bb      	ldr	r3, [r7, #8]
 8000dd0:	2204      	movs	r2, #4
 8000dd2:	4013      	ands	r3, r2
 8000dd4:	d020      	beq.n	8000e18 <HAL_DMA_IRQHandler+0x72>
 8000dd6:	687b      	ldr	r3, [r7, #4]
 8000dd8:	681b      	ldr	r3, [r3, #0]
 8000dda:	681b      	ldr	r3, [r3, #0]
 8000ddc:	2220      	movs	r2, #32
 8000dde:	4013      	ands	r3, r2
 8000de0:	d107      	bne.n	8000df2 <HAL_DMA_IRQHandler+0x4c>
 8000de2:	687b      	ldr	r3, [r7, #4]
 8000de4:	681b      	ldr	r3, [r3, #0]
 8000de6:	681a      	ldr	r2, [r3, #0]
 8000de8:	687b      	ldr	r3, [r7, #4]
 8000dea:	681b      	ldr	r3, [r3, #0]
 8000dec:	2104      	movs	r1, #4
 8000dee:	438a      	bics	r2, r1
 8000df0:	601a      	str	r2, [r3, #0]
 8000df2:	687b      	ldr	r3, [r7, #4]
 8000df4:	6c1a      	ldr	r2, [r3, #64]	@ 0x40
 8000df6:	687b      	ldr	r3, [r7, #4]
 8000df8:	6bdb      	ldr	r3, [r3, #60]	@ 0x3c
 8000dfa:	2104      	movs	r1, #4
 8000dfc:	4091      	lsls	r1, r2
 8000dfe:	000a      	movs	r2, r1
 8000e00:	605a      	str	r2, [r3, #4]
 8000e02:	687b      	ldr	r3, [r7, #4]
 8000e04:	6adb      	ldr	r3, [r3, #44]	@ 0x2c
 8000e06:	2b00      	cmp	r3, #0
 8000e08:	d100      	bne.n	8000e0c <HAL_DMA_IRQHandler+0x66>
 8000e0a:	e06a      	b.n	8000ee2 <HAL_DMA_IRQHandler+0x13c>
 8000e0c:	687b      	ldr	r3, [r7, #4]
 8000e0e:	6adb      	ldr	r3, [r3, #44]	@ 0x2c
 8000e10:	687a      	ldr	r2, [r7, #4]
 8000e12:	0010      	movs	r0, r2
 8000e14:	4798      	blx	r3
 8000e16:	e064      	b.n	8000ee2 <HAL_DMA_IRQHandler+0x13c>
 8000e18:	687b      	ldr	r3, [r7, #4]
 8000e1a:	6c1b      	ldr	r3, [r3, #64]	@ 0x40
 8000e1c:	2202      	movs	r2, #2
 8000e1e:	409a      	lsls	r2, r3
 8000e20:	0013      	movs	r3, r2
 8000e22:	68fa      	ldr	r2, [r7, #12]
 8000e24:	4013      	ands	r3, r2
 8000e26:	d02b      	beq.n	8000e80 <HAL_DMA_IRQHandler+0xda>
 8000e28:	68bb      	ldr	r3, [r7, #8]
 8000e2a:	2202      	movs	r2, #2
 8000e2c:	4013      	ands	r3, r2
 8000e2e:	d027      	beq.n	8000e80 <HAL_DMA_IRQHandler+0xda>
 8000e30:	687b      	ldr	r3, [r7, #4]
 8000e32:	681b      	ldr	r3, [r3, #0]
 8000e34:	681b      	ldr	r3, [r3, #0]
 8000e36:	2220      	movs	r2, #32
 8000e38:	4013      	ands	r3, r2
 8000e3a:	d10b      	bne.n	8000e54 <HAL_DMA_IRQHandler+0xae>
 8000e3c:	687b      	ldr	r3, [r7, #4]
 8000e3e:	681b      	ldr	r3, [r3, #0]
 8000e40:	681a      	ldr	r2, [r3, #0]
 8000e42:	687b      	ldr	r3, [r7, #4]
 8000e44:	681b      	ldr	r3, [r3, #0]
 8000e46:	210a      	movs	r1, #10
 8000e48:	438a      	bics	r2, r1
 8000e4a:	601a      	str	r2, [r3, #0]
 8000e4c:	687b      	ldr	r3, [r7, #4]
 8000e4e:	2221      	movs	r2, #33	@ 0x21
 8000e50:	2101      	movs	r1, #1
 8000e52:	5499      	strb	r1, [r3, r2]
 8000e54:	687b      	ldr	r3, [r7, #4]
 8000e56:	6c1a      	ldr	r2, [r3, #64]	@ 0x40
 8000e58:	687b      	ldr	r3, [r7, #4]
 8000e5a:	6bdb      	ldr	r3, [r3, #60]	@ 0x3c
 8000e5c:	2102      	movs	r1, #2
 8000e5e:	4091      	lsls	r1, r2
 8000e60:	000a      	movs	r2, r1
 8000e62:	605a      	str	r2, [r3, #4]
 8000e64:	687b      	ldr	r3, [r7, #4]
 8000e66:	2220      	movs	r2, #32
 8000e68:	2100      	movs	r1, #0
 8000e6a:	5499      	strb	r1, [r3, r2]
 8000e6c:	687b      	ldr	r3, [r7, #4]
 8000e6e:	6a9b      	ldr	r3, [r3, #40]	@ 0x28
 8000e70:	2b00      	cmp	r3, #0
 8000e72:	d036      	beq.n	8000ee2 <HAL_DMA_IRQHandler+0x13c>
 8000e74:	687b      	ldr	r3, [r7, #4]
 8000e76:	6a9b      	ldr	r3, [r3, #40]	@ 0x28
 8000e78:	687a      	ldr	r2, [r7, #4]
 8000e7a:	0010      	movs	r0, r2
 8000e7c:	4798      	blx	r3
 8000e7e:	e030      	b.n	8000ee2 <HAL_DMA_IRQHandler+0x13c>
 8000e80:	687b      	ldr	r3, [r7, #4]
 8000e82:	6c1b      	ldr	r3, [r3, #64]	@ 0x40
 8000e84:	2208      	movs	r2, #8
 8000e86:	409a      	lsls	r2, r3
 8000e88:	0013      	movs	r3, r2
 8000e8a:	68fa      	ldr	r2, [r7, #12]
 8000e8c:	4013      	ands	r3, r2
 8000e8e:	d028      	beq.n	8000ee2 <HAL_DMA_IRQHandler+0x13c>
 8000e90:	68bb      	ldr	r3, [r7, #8]
 8000e92:	2208      	movs	r2, #8
 8000e94:	4013      	ands	r3, r2
 8000e96:	d024      	beq.n	8000ee2 <HAL_DMA_IRQHandler+0x13c>
 8000e98:	687b      	ldr	r3, [r7, #4]
 8000e9a:	681b      	ldr	r3, [r3, #0]
 8000e9c:	681a      	ldr	r2, [r3, #0]
 8000e9e:	687b      	ldr	r3, [r7, #4]
 8000ea0:	681b      	ldr	r3, [r3, #0]
 8000ea2:	210e      	movs	r1, #14
 8000ea4:	438a      	bics	r2, r1
 8000ea6:	601a      	str	r2, [r3, #0]
 8000ea8:	687b      	ldr	r3, [r7, #4]
 8000eaa:	6c1a      	ldr	r2, [r3, #64]	@ 0x40
 8000eac:	687b      	ldr	r3, [r7, #4]
 8000eae:	6bdb      	ldr	r3, [r3, #60]	@ 0x3c
 8000eb0:	2101      	movs	r1, #1
 8000eb2:	4091      	lsls	r1, r2
 8000eb4:	000a      	movs	r2, r1
 8000eb6:	605a      	str	r2, [r3, #4]
 8000eb8:	687b      	ldr	r3, [r7, #4]
 8000eba:	2201      	movs	r2, #1
 8000ebc:	639a      	str	r2, [r3, #56]	@ 0x38
 8000ebe:	687b      	ldr	r3, [r7, #4]
 8000ec0:	2221      	movs	r2, #33	@ 0x21
 8000ec2:	2101      	movs	r1, #1
 8000ec4:	5499      	strb	r1, [r3, r2]
 8000ec6:	687b      	ldr	r3, [r7, #4]
 8000ec8:	2220      	movs	r2, #32
 8000eca:	2100      	movs	r1, #0
 8000ecc:	5499      	strb	r1, [r3, r2]
 8000ece:	687b      	ldr	r3, [r7, #4]
 8000ed0:	6b1b      	ldr	r3, [r3, #48]	@ 0x30
 8000ed2:	2b00      	cmp	r3, #0
 8000ed4:	d005      	beq.n	8000ee2 <HAL_DMA_IRQHandler+0x13c>
 8000ed6:	687b      	ldr	r3, [r7, #4]
 8000ed8:	6b1b      	ldr	r3, [r3, #48]	@ 0x30
 8000eda:	687a      	ldr	r2, [r7, #4]
 8000edc:	0010      	movs	r0, r2
 8000ede:	4798      	blx	r3
 8000ee0:	e7ff      	b.n	8000ee2 <HAL_DMA_IRQHandler+0x13c>
 8000ee2:	46c0      	nop			@ (mov r8, r8)
 8000ee4:	46bd      	mov	sp, r7
 8000ee6:	b004      	add	sp, #16
 8000ee8:	bd80      	pop	{r7, pc}

08000eea <DMA_SetConfig>:
 8000eea:	b580      	push	{r7, lr}
 8000eec:	b084      	sub	sp, #16
 8000eee:	af00      	add	r7, sp, #0
 8000ef0:	60f8      	str	r0, [r7, #12]
 8000ef2:	60b9      	str	r1, [r7, #8]
 8000ef4:	607a      	str	r2, [r7, #4]
 8000ef6:	603b      	str	r3, [r7, #0]
 8000ef8:	68fb      	ldr	r3, [r7, #12]
 8000efa:	6c1a      	ldr	r2, [r3, #64]	@ 0x40
 8000efc:	68fb      	ldr	r3, [r7, #12]
 8000efe:	6bdb      	ldr	r3, [r3, #60]	@ 0x3c
 8000f00:	2101      	movs	r1, #1
 8000f02:	4091      	lsls	r1, r2
 8000f04:	000a      	movs	r2, r1
 8000f06:	605a      	str	r2, [r3, #4]
 8000f08:	68fb      	ldr	r3, [r7, #12]
 8000f0a:	681b      	ldr	r3, [r3, #0]
 8000f0c:	683a      	ldr	r2, [r7, #0]
 8000f0e:	605a      	str	r2, [r3, #4]
 8000f10:	68fb      	ldr	r3, [r7, #12]
 8000f12:	685b      	ldr	r3, [r3, #4]
 8000f14:	2b10      	cmp	r3, #16
 8000f16:	d108      	bne.n	8000f2a <DMA_SetConfig+0x40>
 8000f18:	68fb      	ldr	r3, [r7, #12]
 8000f1a:	681b      	ldr	r3, [r3, #0]
 8000f1c:	687a      	ldr	r2, [r7, #4]
 8000f1e:	609a      	str	r2, [r3, #8]
 8000f20:	68fb      	ldr	r3, [r7, #12]
 8000f22:	681b      	ldr	r3, [r3, #0]
 8000f24:	68ba      	ldr	r2, [r7, #8]
 8000f26:	60da      	str	r2, [r3, #12]
 8000f28:	e007      	b.n	8000f3a <DMA_SetConfig+0x50>
 8000f2a:	68fb      	ldr	r3, [r7, #12]
 8000f2c:	681b      	ldr	r3, [r3, #0]
 8000f2e:	68ba      	ldr	r2, [r7, #8]
 8000f30:	609a      	str	r2, [r3, #8]
 8000f32:	68fb      	ldr	r3, [r7, #12]
 8000f34:	681b      	ldr	r3, [r3, #0]
 8000f36:	687a      	ldr	r2, [r7, #4]
 8000f38:	60da      	str	r2, [r3, #12]
 8000f3a:	46c0      	nop			@ (mov r8, r8)
 8000f3c:	46bd      	mov	sp, r7
 8000f3e:	b004      	add	sp, #16
 8000f40:	bd80      	pop	{r7, pc}
	...

08000f44 <DMA_CalcBaseAndBitshift>:
 8000f44:	b580      	push	{r7, lr}
 8000f46:	b082      	sub	sp, #8
 8000f48:	af00      	add	r7, sp, #0
 8000f4a:	6078      	str	r0, [r7, #4]
 8000f4c:	687b      	ldr	r3, [r7, #4]
 8000f4e:	681b      	ldr	r3, [r3, #0]
 8000f50:	4a08      	ldr	r2, [pc, #32]	@ (8000f74 <DMA_CalcBaseAndBitshift+0x30>)
 8000f52:	4694      	mov	ip, r2
 8000f54:	4463      	add	r3, ip
 8000f56:	2114      	movs	r1, #20
 8000f58:	0018      	movs	r0, r3
 8000f5a:	f7ff f8d5 	bl	8000108 <__udivsi3>
 8000f5e:	0003      	movs	r3, r0
 8000f60:	009a      	lsls	r2, r3, #2
 8000f62:	687b      	ldr	r3, [r7, #4]
 8000f64:	641a      	str	r2, [r3, #64]	@ 0x40
 8000f66:	687b      	ldr	r3, [r7, #4]
 8000f68:	4a03      	ldr	r2, [pc, #12]	@ (8000f78 <DMA_CalcBaseAndBitshift+0x34>)
 8000f6a:	63da      	str	r2, [r3, #60]	@ 0x3c
 8000f6c:	46c0      	nop			@ (mov r8, r8)
 8000f6e:	46bd      	mov	sp, r7
 8000f70:	b002      	add	sp, #8
 8000f72:	bd80      	pop	{r7, pc}
 8000f74:	bffdfff8 	.word	0xbffdfff8
 8000f78:	40020000 	.word	0x40020000

08000f7c <HAL_GPIO_Init>:
 8000f7c:	b580      	push	{r7, lr}
 8000f7e:	b086      	sub	sp, #24
 8000f80:	af00      	add	r7, sp, #0
 8000f82:	6078      	str	r0, [r7, #4]
 8000f84:	6039      	str	r1, [r7, #0]
 8000f86:	2300      	movs	r3, #0
 8000f88:	617b      	str	r3, [r7, #20]
 8000f8a:	e14f      	b.n	800122c <HAL_GPIO_Init+0x2b0>
 8000f8c:	683b      	ldr	r3, [r7, #0]
 8000f8e:	681b      	ldr	r3, [r3, #0]
 8000f90:	2101      	movs	r1, #1
 8000f92:	697a      	ldr	r2, [r7, #20]
 8000f94:	4091      	lsls	r1, r2
 8000f96:	000a      	movs	r2, r1
 8000f98:	4013      	ands	r3, r2
 8000f9a:	60fb      	str	r3, [r7, #12]
 8000f9c:	68fb      	ldr	r3, [r7, #12]
 8000f9e:	2b00      	cmp	r3, #0
 8000fa0:	d100      	bne.n	8000fa4 <HAL_GPIO_Init+0x28>
 8000fa2:	e140      	b.n	8001226 <HAL_GPIO_Init+0x2aa>
 8000fa4:	683b      	ldr	r3, [r7, #0]
 8000fa6:	685b      	ldr	r3, [r3, #4]
 8000fa8:	2203      	movs	r2, #3
 8000faa:	4013      	ands	r3, r2
 8000fac:	2b01      	cmp	r3, #1
 8000fae:	d005      	beq.n	8000fbc <HAL_GPIO_Init+0x40>
 8000fb0:	683b      	ldr	r3, [r7, #0]
 8000fb2:	685b      	ldr	r3, [r3, #4]
 8000fb4:	2203      	movs	r2, #3
 8000fb6:	4013      	ands	r3, r2
 8000fb8:	2b02      	cmp	r3, #2
 8000fba:	d130      	bne.n	800101e <HAL_GPIO_Init+0xa2>
 8000fbc:	687b      	ldr	r3, [r7, #4]
 8000fbe:	689b      	ldr	r3, [r3, #8]
 8000fc0:	613b      	str	r3, [r7, #16]
 8000fc2:	697b      	ldr	r3, [r7, #20]
 8000fc4:	005b      	lsls	r3, r3, #1
 8000fc6:	2203      	movs	r2, #3
 8000fc8:	409a      	lsls	r2, r3
 8000fca:	0013      	movs	r3, r2
 8000fcc:	43da      	mvns	r2, r3
 8000fce:	693b      	ldr	r3, [r7, #16]
 8000fd0:	4013      	ands	r3, r2
 8000fd2:	613b      	str	r3, [r7, #16]
 8000fd4:	683b      	ldr	r3, [r7, #0]
 8000fd6:	68da      	ldr	r2, [r3, #12]
 8000fd8:	697b      	ldr	r3, [r7, #20]
 8000fda:	005b      	lsls	r3, r3, #1
 8000fdc:	409a      	lsls	r2, r3
 8000fde:	0013      	movs	r3, r2
 8000fe0:	693a      	ldr	r2, [r7, #16]
 8000fe2:	4313      	orrs	r3, r2
 8000fe4:	613b      	str	r3, [r7, #16]
 8000fe6:	687b      	ldr	r3, [r7, #4]
 8000fe8:	693a      	ldr	r2, [r7, #16]
 8000fea:	609a      	str	r2, [r3, #8]
 8000fec:	687b      	ldr	r3, [r7, #4]
 8000fee:	685b      	ldr	r3, [r3, #4]
 8000ff0:	613b      	str	r3, [r7, #16]
 8000ff2:	2201      	movs	r2, #1
 8000ff4:	697b      	ldr	r3, [r7, #20]
 8000ff6:	409a      	lsls	r2, r3
 8000ff8:	0013      	movs	r3, r2
 8000ffa:	43da      	mvns	r2, r3
 8000ffc:	693b      	ldr	r3, [r7, #16]
 8000ffe:	4013      	ands	r3, r2
 8001000:	613b      	str	r3, [r7, #16]
 8001002:	683b      	ldr	r3, [r7, #0]
 8001004:	685b      	ldr	r3, [r3, #4]
 8001006:	091b      	lsrs	r3, r3, #4
 8001008:	2201      	movs	r2, #1
 800100a:	401a      	ands	r2, r3
 800100c:	697b      	ldr	r3, [r7, #20]
 800100e:	409a      	lsls	r2, r3
 8001010:	0013      	movs	r3, r2
 8001012:	693a      	ldr	r2, [r7, #16]
 8001014:	4313      	orrs	r3, r2
 8001016:	613b      	str	r3, [r7, #16]
 8001018:	687b      	ldr	r3, [r7, #4]
 800101a:	693a      	ldr	r2, [r7, #16]
 800101c:	605a      	str	r2, [r3, #4]
 800101e:	683b      	ldr	r3, [r7, #0]
 8001020:	685b      	ldr	r3, [r3, #4]
 8001022:	2203      	movs	r2, #3
 8001024:	4013      	ands	r3, r2
 8001026:	2b03      	cmp	r3, #3
 8001028:	d017      	beq.n	800105a <HAL_GPIO_Init+0xde>
 800102a:	687b      	ldr	r3, [r7, #4]
 800102c:	68db      	ldr	r3, [r3, #12]
 800102e:	613b      	str	r3, [r7, #16]
 8001030:	697b      	ldr	r3, [r7, #20]
 8001032:	005b      	lsls	r3, r3, #1
 8001034:	2203      	movs	r2, #3
 8001036:	409a      	lsls	r2, r3
 8001038:	0013      	movs	r3, r2
 800103a:	43da      	mvns	r2, r3
 800103c:	693b      	ldr	r3, [r7, #16]
 800103e:	4013      	ands	r3, r2
 8001040:	613b      	str	r3, [r7, #16]
 8001042:	683b      	ldr	r3, [r7, #0]
 8001044:	689a      	ldr	r2, [r3, #8]
 8001046:	697b      	ldr	r3, [r7, #20]
 8001048:	005b      	lsls	r3, r3, #1
 800104a:	409a      	lsls	r2, r3
 800104c:	0013      	movs	r3, r2
 800104e:	693a      	ldr	r2, [r7, #16]
 8001050:	4313      	orrs	r3, r2
 8001052:	613b      	str	r3, [r7, #16]
 8001054:	687b      	ldr	r3, [r7, #4]
 8001056:	693a      	ldr	r2, [r7, #16]
 8001058:	60da      	str	r2, [r3, #12]
 800105a:	683b      	ldr	r3, [r7, #0]
 800105c:	685b      	ldr	r3, [r3, #4]
 800105e:	2203      	movs	r2, #3
 8001060:	4013      	ands	r3, r2
 8001062:	2b02      	cmp	r3, #2
 8001064:	d123      	bne.n	80010ae <HAL_GPIO_Init+0x132>
 8001066:	697b      	ldr	r3, [r7, #20]
 8001068:	08da      	lsrs	r2, r3, #3
 800106a:	687b      	ldr	r3, [r7, #4]
 800106c:	3208      	adds	r2, #8
 800106e:	0092      	lsls	r2, r2, #2
 8001070:	58d3      	ldr	r3, [r2, r3]
 8001072:	613b      	str	r3, [r7, #16]
 8001074:	697b      	ldr	r3, [r7, #20]
 8001076:	2207      	movs	r2, #7
 8001078:	4013      	ands	r3, r2
 800107a:	009b      	lsls	r3, r3, #2
 800107c:	220f      	movs	r2, #15
 800107e:	409a      	lsls	r2, r3
 8001080:	0013      	movs	r3, r2
 8001082:	43da      	mvns	r2, r3
 8001084:	693b      	ldr	r3, [r7, #16]
 8001086:	4013      	ands	r3, r2
 8001088:	613b      	str	r3, [r7, #16]
 800108a:	683b      	ldr	r3, [r7, #0]
 800108c:	691a      	ldr	r2, [r3, #16]
 800108e:	697b      	ldr	r3, [r7, #20]
 8001090:	2107      	movs	r1, #7
 8001092:	400b      	ands	r3, r1
 8001094:	009b      	lsls	r3, r3, #2
 8001096:	409a      	lsls	r2, r3
 8001098:	0013      	movs	r3, r2
 800109a:	693a      	ldr	r2, [r7, #16]
 800109c:	4313      	orrs	r3, r2
 800109e:	613b      	str	r3, [r7, #16]
 80010a0:	697b      	ldr	r3, [r7, #20]
 80010a2:	08da      	lsrs	r2, r3, #3
 80010a4:	687b      	ldr	r3, [r7, #4]
 80010a6:	3208      	adds	r2, #8
 80010a8:	0092      	lsls	r2, r2, #2
 80010aa:	6939      	ldr	r1, [r7, #16]
 80010ac:	50d1      	str	r1, [r2, r3]
 80010ae:	687b      	ldr	r3, [r7, #4]
 80010b0:	681b      	ldr	r3, [r3, #0]
 80010b2:	613b      	str	r3, [r7, #16]
 80010b4:	697b      	ldr	r3, [r7, #20]
 80010b6:	005b      	lsls	r3, r3, #1
 80010b8:	2203      	movs	r2, #3
 80010ba:	409a      	lsls	r2, r3
 80010bc:	0013      	movs	r3, r2
 80010be:	43da      	mvns	r2, r3
 80010c0:	693b      	ldr	r3, [r7, #16]
 80010c2:	4013      	ands	r3, r2
 80010c4:	613b      	str	r3, [r7, #16]
 80010c6:	683b      	ldr	r3, [r7, #0]
 80010c8:	685b      	ldr	r3, [r3, #4]
 80010ca:	2203      	movs	r2, #3
 80010cc:	401a      	ands	r2, r3
 80010ce:	697b      	ldr	r3, [r7, #20]
 80010d0:	005b      	lsls	r3, r3, #1
 80010d2:	409a      	lsls	r2, r3
 80010d4:	0013      	movs	r3, r2
 80010d6:	693a      	ldr	r2, [r7, #16]
 80010d8:	4313      	orrs	r3, r2
 80010da:	613b      	str	r3, [r7, #16]
 80010dc:	687b      	ldr	r3, [r7, #4]
 80010de:	693a      	ldr	r2, [r7, #16]
 80010e0:	601a      	str	r2, [r3, #0]
 80010e2:	683b      	ldr	r3, [r7, #0]
 80010e4:	685a      	ldr	r2, [r3, #4]
 80010e6:	23c0      	movs	r3, #192	@ 0xc0
 80010e8:	029b      	lsls	r3, r3, #10
 80010ea:	4013      	ands	r3, r2
 80010ec:	d100      	bne.n	80010f0 <HAL_GPIO_Init+0x174>
 80010ee:	e09a      	b.n	8001226 <HAL_GPIO_Init+0x2aa>
 80010f0:	4b54      	ldr	r3, [pc, #336]	@ (8001244 <HAL_GPIO_Init+0x2c8>)
 80010f2:	699a      	ldr	r2, [r3, #24]
 80010f4:	4b53      	ldr	r3, [pc, #332]	@ (8001244 <HAL_GPIO_Init+0x2c8>)
 80010f6:	2101      	movs	r1, #1
 80010f8:	430a      	orrs	r2, r1
 80010fa:	619a      	str	r2, [r3, #24]
 80010fc:	4b51      	ldr	r3, [pc, #324]	@ (8001244 <HAL_GPIO_Init+0x2c8>)
 80010fe:	699b      	ldr	r3, [r3, #24]
 8001100:	2201      	movs	r2, #1
 8001102:	4013      	ands	r3, r2
 8001104:	60bb      	str	r3, [r7, #8]
 8001106:	68bb      	ldr	r3, [r7, #8]
 8001108:	4a4f      	ldr	r2, [pc, #316]	@ (8001248 <HAL_GPIO_Init+0x2cc>)
 800110a:	697b      	ldr	r3, [r7, #20]
 800110c:	089b      	lsrs	r3, r3, #2
 800110e:	3302      	adds	r3, #2
 8001110:	009b      	lsls	r3, r3, #2
 8001112:	589b      	ldr	r3, [r3, r2]
 8001114:	613b      	str	r3, [r7, #16]
 8001116:	697b      	ldr	r3, [r7, #20]
 8001118:	2203      	movs	r2, #3
 800111a:	4013      	ands	r3, r2
 800111c:	009b      	lsls	r3, r3, #2
 800111e:	220f      	movs	r2, #15
 8001120:	409a      	lsls	r2, r3
 8001122:	0013      	movs	r3, r2
 8001124:	43da      	mvns	r2, r3
 8001126:	693b      	ldr	r3, [r7, #16]
 8001128:	4013      	ands	r3, r2
 800112a:	613b      	str	r3, [r7, #16]
 800112c:	687a      	ldr	r2, [r7, #4]
 800112e:	2390      	movs	r3, #144	@ 0x90
 8001130:	05db      	lsls	r3, r3, #23
 8001132:	429a      	cmp	r2, r3
 8001134:	d013      	beq.n	800115e <HAL_GPIO_Init+0x1e2>
 8001136:	687b      	ldr	r3, [r7, #4]
 8001138:	4a44      	ldr	r2, [pc, #272]	@ (800124c <HAL_GPIO_Init+0x2d0>)
 800113a:	4293      	cmp	r3, r2
 800113c:	d00d      	beq.n	800115a <HAL_GPIO_Init+0x1de>
 800113e:	687b      	ldr	r3, [r7, #4]
 8001140:	4a43      	ldr	r2, [pc, #268]	@ (8001250 <HAL_GPIO_Init+0x2d4>)
 8001142:	4293      	cmp	r3, r2
 8001144:	d007      	beq.n	8001156 <HAL_GPIO_Init+0x1da>
 8001146:	687b      	ldr	r3, [r7, #4]
 8001148:	4a42      	ldr	r2, [pc, #264]	@ (8001254 <HAL_GPIO_Init+0x2d8>)
 800114a:	4293      	cmp	r3, r2
 800114c:	d101      	bne.n	8001152 <HAL_GPIO_Init+0x1d6>
 800114e:	2303      	movs	r3, #3
 8001150:	e006      	b.n	8001160 <HAL_GPIO_Init+0x1e4>
 8001152:	2305      	movs	r3, #5
 8001154:	e004      	b.n	8001160 <HAL_GPIO_Init+0x1e4>
 8001156:	2302      	movs	r3, #2
 8001158:	e002      	b.n	8001160 <HAL_GPIO_Init+0x1e4>
 800115a:	2301      	movs	r3, #1
 800115c:	e000      	b.n	8001160 <HAL_GPIO_Init+0x1e4>
 800115e:	2300      	movs	r3, #0
 8001160:	697a      	ldr	r2, [r7, #20]
 8001162:	2103      	movs	r1, #3
 8001164:	400a      	ands	r2, r1
 8001166:	0092      	lsls	r2, r2, #2
 8001168:	4093      	lsls	r3, r2
 800116a:	693a      	ldr	r2, [r7, #16]
 800116c:	4313      	orrs	r3, r2
 800116e:	613b      	str	r3, [r7, #16]
 8001170:	4935      	ldr	r1, [pc, #212]	@ (8001248 <HAL_GPIO_Init+0x2cc>)
 8001172:	697b      	ldr	r3, [r7, #20]
 8001174:	089b      	lsrs	r3, r3, #2
 8001176:	3302      	adds	r3, #2
 8001178:	009b      	lsls	r3, r3, #2
 800117a:	693a      	ldr	r2, [r7, #16]
 800117c:	505a      	str	r2, [r3, r1]
 800117e:	4b36      	ldr	r3, [pc, #216]	@ (8001258 <HAL_GPIO_Init+0x2dc>)
 8001180:	689b      	ldr	r3, [r3, #8]
 8001182:	613b      	str	r3, [r7, #16]
 8001184:	68fb      	ldr	r3, [r7, #12]
 8001186:	43da      	mvns	r2, r3
 8001188:	693b      	ldr	r3, [r7, #16]
 800118a:	4013      	ands	r3, r2
 800118c:	613b      	str	r3, [r7, #16]
 800118e:	683b      	ldr	r3, [r7, #0]
 8001190:	685a      	ldr	r2, [r3, #4]
 8001192:	2380      	movs	r3, #128	@ 0x80
 8001194:	035b      	lsls	r3, r3, #13
 8001196:	4013      	ands	r3, r2
 8001198:	d003      	beq.n	80011a2 <HAL_GPIO_Init+0x226>
 800119a:	693a      	ldr	r2, [r7, #16]
 800119c:	68fb      	ldr	r3, [r7, #12]
 800119e:	4313      	orrs	r3, r2
 80011a0:	613b      	str	r3, [r7, #16]
 80011a2:	4b2d      	ldr	r3, [pc, #180]	@ (8001258 <HAL_GPIO_Init+0x2dc>)
 80011a4:	693a      	ldr	r2, [r7, #16]
 80011a6:	609a      	str	r2, [r3, #8]
 80011a8:	4b2b      	ldr	r3, [pc, #172]	@ (8001258 <HAL_GPIO_Init+0x2dc>)
 80011aa:	68db      	ldr	r3, [r3, #12]
 80011ac:	613b      	str	r3, [r7, #16]
 80011ae:	68fb      	ldr	r3, [r7, #12]
 80011b0:	43da      	mvns	r2, r3
 80011b2:	693b      	ldr	r3, [r7, #16]
 80011b4:	4013      	ands	r3, r2
 80011b6:	613b      	str	r3, [r7, #16]
 80011b8:	683b      	ldr	r3, [r7, #0]
 80011ba:	685a      	ldr	r2, [r3, #4]
 80011bc:	2380      	movs	r3, #128	@ 0x80
 80011be:	039b      	lsls	r3, r3, #14
 80011c0:	4013      	ands	r3, r2
 80011c2:	d003      	beq.n	80011cc <HAL_GPIO_Init+0x250>
 80011c4:	693a      	ldr	r2, [r7, #16]
 80011c6:	68fb      	ldr	r3, [r7, #12]
 80011c8:	4313      	orrs	r3, r2
 80011ca:	613b      	str	r3, [r7, #16]
 80011cc:	4b22      	ldr	r3, [pc, #136]	@ (8001258 <HAL_GPIO_Init+0x2dc>)
 80011ce:	693a      	ldr	r2, [r7, #16]
 80011d0:	60da      	str	r2, [r3, #12]
 80011d2:	4b21      	ldr	r3, [pc, #132]	@ (8001258 <HAL_GPIO_Init+0x2dc>)
 80011d4:	685b      	ldr	r3, [r3, #4]
 80011d6:	613b      	str	r3, [r7, #16]
 80011d8:	68fb      	ldr	r3, [r7, #12]
 80011da:	43da      	mvns	r2, r3
 80011dc:	693b      	ldr	r3, [r7, #16]
 80011de:	4013      	ands	r3, r2
 80011e0:	613b      	str	r3, [r7, #16]
 80011e2:	683b      	ldr	r3, [r7, #0]
 80011e4:	685a      	ldr	r2, [r3, #4]
 80011e6:	2380      	movs	r3, #128	@ 0x80
 80011e8:	029b      	lsls	r3, r3, #10
 80011ea:	4013      	ands	r3, r2
 80011ec:	d003      	beq.n	80011f6 <HAL_GPIO_Init+0x27a>
 80011ee:	693a      	ldr	r2, [r7, #16]
 80011f0:	68fb      	ldr	r3, [r7, #12]
 80011f2:	4313      	orrs	r3, r2
 80011f4:	613b      	str	r3, [r7, #16]
 80011f6:	4b18      	ldr	r3, [pc, #96]	@ (8001258 <HAL_GPIO_Init+0x2dc>)
 80011f8:	693a      	ldr	r2, [r7, #16]
 80011fa:	605a      	str	r2, [r3, #4]
 80011fc:	4b16      	ldr	r3, [pc, #88]	@ (8001258 <HAL_GPIO_Init+0x2dc>)
 80011fe:	681b      	ldr	r3, [r3, #0]
 8001200:	613b      	str	r3, [r7, #16]
 8001202:	68fb      	ldr	r3, [r7, #12]
 8001204:	43da      	mvns	r2, r3
 8001206:	693b      	ldr	r3, [r7, #16]
 8001208:	4013      	ands	r3, r2
 800120a:	613b      	str	r3, [r7, #16]
 800120c:	683b      	ldr	r3, [r7, #0]
 800120e:	685a      	ldr	r2, [r3, #4]
 8001210:	2380      	movs	r3, #128	@ 0x80
 8001212:	025b      	lsls	r3, r3, #9
 8001214:	4013      	ands	r3, r2
 8001216:	d003      	beq.n	8001220 <HAL_GPIO_Init+0x2a4>
 8001218:	693a      	ldr	r2, [r7, #16]
 800121a:	68fb      	ldr	r3, [r7, #12]
 800121c:	4313      	orrs	r3, r2
 800121e:	613b      	str	r3, [r7, #16]
 8001220:	4b0d      	ldr	r3, [pc, #52]	@ (8001258 <HAL_GPIO_Init+0x2dc>)
 8001222:	693a      	ldr	r2, [r7, #16]
 8001224:	601a      	str	r2, [r3, #0]
 8001226:	697b      	ldr	r3, [r7, #20]
 8001228:	3301      	adds	r3, #1
 800122a:	617b      	str	r3, [r7, #20]
 800122c:	683b      	ldr	r3, [r7, #0]
 800122e:	681a      	ldr	r2, [r3, #0]
 8001230:	697b      	ldr	r3, [r7, #20]
 8001232:	40da      	lsrs	r2, r3
 8001234:	1e13      	subs	r3, r2, #0
 8001236:	d000      	beq.n	800123a <HAL_GPIO_Init+0x2be>
 8001238:	e6a8      	b.n	8000f8c <HAL_GPIO_Init+0x10>
 800123a:	46c0      	nop			@ (mov r8, r8)
 800123c:	46c0      	nop			@ (mov r8, r8)
 800123e:	46bd      	mov	sp, r7
 8001240:	b006      	add	sp, #24
 8001242:	bd80      	pop	{r7, pc}
 8001244:	40021000 	.word	0x40021000
 8001248:	40010000 	.word	0x40010000
 800124c:	48000400 	.word	0x48000400
 8001250:	48000800 	.word	0x48000800
 8001254:	48000c00 	.word	0x48000c00
 8001258:	40010400 	.word	0x40010400

0800125c <HAL_GPIO_WritePin>:
 800125c:	b580      	push	{r7, lr}
 800125e:	b082      	sub	sp, #8
 8001260:	af00      	add	r7, sp, #0
 8001262:	6078      	str	r0, [r7, #4]
 8001264:	0008      	movs	r0, r1
 8001266:	0011      	movs	r1, r2
 8001268:	1cbb      	adds	r3, r7, #2
 800126a:	1c02      	adds	r2, r0, #0
 800126c:	801a      	strh	r2, [r3, #0]
 800126e:	1c7b      	adds	r3, r7, #1
 8001270:	1c0a      	adds	r2, r1, #0
 8001272:	701a      	strb	r2, [r3, #0]
 8001274:	1c7b      	adds	r3, r7, #1
 8001276:	781b      	ldrb	r3, [r3, #0]
 8001278:	2b00      	cmp	r3, #0
 800127a:	d004      	beq.n	8001286 <HAL_GPIO_WritePin+0x2a>
 800127c:	1cbb      	adds	r3, r7, #2
 800127e:	881a      	ldrh	r2, [r3, #0]
 8001280:	687b      	ldr	r3, [r7, #4]
 8001282:	619a      	str	r2, [r3, #24]
 8001284:	e003      	b.n	800128e <HAL_GPIO_WritePin+0x32>
 8001286:	1cbb      	adds	r3, r7, #2
 8001288:	881a      	ldrh	r2, [r3, #0]
 800128a:	687b      	ldr	r3, [r7, #4]
 800128c:	629a      	str	r2, [r3, #40]	@ 0x28
 800128e:	46c0      	nop			@ (mov r8, r8)
 8001290:	46bd      	mov	sp, r7
 8001292:	b002      	add	sp, #8
 8001294:	bd80      	pop	{r7, pc}
	...

08001298 <HAL_RCC_OscConfig>:
 8001298:	b580      	push	{r7, lr}
 800129a:	b088      	sub	sp, #32
 800129c:	af00      	add	r7, sp, #0
 800129e:	6078      	str	r0, [r7, #4]
 80012a0:	687b      	ldr	r3, [r7, #4]
 80012a2:	2b00      	cmp	r3, #0
 80012a4:	d101      	bne.n	80012aa <HAL_RCC_OscConfig+0x12>
 80012a6:	2301      	movs	r3, #1
 80012a8:	e301      	b.n	80018ae <HAL_RCC_OscConfig+0x616>
 80012aa:	687b      	ldr	r3, [r7, #4]
 80012ac:	681b      	ldr	r3, [r3, #0]
 80012ae:	2201      	movs	r2, #1
 80012b0:	4013      	ands	r3, r2
 80012b2:	d100      	bne.n	80012b6 <HAL_RCC_OscConfig+0x1e>
 80012b4:	e08d      	b.n	80013d2 <HAL_RCC_OscConfig+0x13a>
 80012b6:	4bc3      	ldr	r3, [pc, #780]	@ (80015c4 <HAL_RCC_OscConfig+0x32c>)
 80012b8:	685b      	ldr	r3, [r3, #4]
 80012ba:	220c      	movs	r2, #12
 80012bc:	4013      	ands	r3, r2
 80012be:	2b04      	cmp	r3, #4
 80012c0:	d00e      	beq.n	80012e0 <HAL_RCC_OscConfig+0x48>
 80012c2:	4bc0      	ldr	r3, [pc, #768]	@ (80015c4 <HAL_RCC_OscConfig+0x32c>)
 80012c4:	685b      	ldr	r3, [r3, #4]
 80012c6:	220c      	movs	r2, #12
 80012c8:	4013      	ands	r3, r2
 80012ca:	2b08      	cmp	r3, #8
 80012cc:	d116      	bne.n	80012fc <HAL_RCC_OscConfig+0x64>
 80012ce:	4bbd      	ldr	r3, [pc, #756]	@ (80015c4 <HAL_RCC_OscConfig+0x32c>)
 80012d0:	685a      	ldr	r2, [r3, #4]
 80012d2:	2380      	movs	r3, #128	@ 0x80
 80012d4:	025b      	lsls	r3, r3, #9
 80012d6:	401a      	ands	r2, r3
 80012d8:	2380      	movs	r3, #128	@ 0x80
 80012da:	025b      	lsls	r3, r3, #9
 80012dc:	429a      	cmp	r2, r3
 80012de:	d10d      	bne.n	80012fc <HAL_RCC_OscConfig+0x64>
 80012e0:	4bb8      	ldr	r3, [pc, #736]	@ (80015c4 <HAL_RCC_OscConfig+0x32c>)
 80012e2:	681a      	ldr	r2, [r3, #0]
 80012e4:	2380      	movs	r3, #128	@ 0x80
 80012e6:	029b      	lsls	r3, r3, #10
 80012e8:	4013      	ands	r3, r2
 80012ea:	d100      	bne.n	80012ee <HAL_RCC_OscConfig+0x56>
 80012ec:	e070      	b.n	80013d0 <HAL_RCC_OscConfig+0x138>
 80012ee:	687b      	ldr	r3, [r7, #4]
 80012f0:	685b      	ldr	r3, [r3, #4]
 80012f2:	2b00      	cmp	r3, #0
 80012f4:	d000      	beq.n	80012f8 <HAL_RCC_OscConfig+0x60>
 80012f6:	e06b      	b.n	80013d0 <HAL_RCC_OscConfig+0x138>
 80012f8:	2301      	movs	r3, #1
 80012fa:	e2d8      	b.n	80018ae <HAL_RCC_OscConfig+0x616>
 80012fc:	687b      	ldr	r3, [r7, #4]
 80012fe:	685b      	ldr	r3, [r3, #4]
 8001300:	2b01      	cmp	r3, #1
 8001302:	d107      	bne.n	8001314 <HAL_RCC_OscConfig+0x7c>
 8001304:	4baf      	ldr	r3, [pc, #700]	@ (80015c4 <HAL_RCC_OscConfig+0x32c>)
 8001306:	681a      	ldr	r2, [r3, #0]
 8001308:	4bae      	ldr	r3, [pc, #696]	@ (80015c4 <HAL_RCC_OscConfig+0x32c>)
 800130a:	2180      	movs	r1, #128	@ 0x80
 800130c:	0249      	lsls	r1, r1, #9
 800130e:	430a      	orrs	r2, r1
 8001310:	601a      	str	r2, [r3, #0]
 8001312:	e02f      	b.n	8001374 <HAL_RCC_OscConfig+0xdc>
 8001314:	687b      	ldr	r3, [r7, #4]
 8001316:	685b      	ldr	r3, [r3, #4]
 8001318:	2b00      	cmp	r3, #0
 800131a:	d10c      	bne.n	8001336 <HAL_RCC_OscConfig+0x9e>
 800131c:	4ba9      	ldr	r3, [pc, #676]	@ (80015c4 <HAL_RCC_OscConfig+0x32c>)
 800131e:	681a      	ldr	r2, [r3, #0]
 8001320:	4ba8      	ldr	r3, [pc, #672]	@ (80015c4 <HAL_RCC_OscConfig+0x32c>)
 8001322:	49a9      	ldr	r1, [pc, #676]	@ (80015c8 <HAL_RCC_OscConfig+0x330>)
 8001324:	400a      	ands	r2, r1
 8001326:	601a      	str	r2, [r3, #0]
 8001328:	4ba6      	ldr	r3, [pc, #664]	@ (80015c4 <HAL_RCC_OscConfig+0x32c>)
 800132a:	681a      	ldr	r2, [r3, #0]
 800132c:	4ba5      	ldr	r3, [pc, #660]	@ (80015c4 <HAL_RCC_OscConfig+0x32c>)
 800132e:	49a7      	ldr	r1, [pc, #668]	@ (80015cc <HAL_RCC_OscConfig+0x334>)
 8001330:	400a      	ands	r2, r1
 8001332:	601a      	str	r2, [r3, #0]
 8001334:	e01e      	b.n	8001374 <HAL_RCC_OscConfig+0xdc>
 8001336:	687b      	ldr	r3, [r7, #4]
 8001338:	685b      	ldr	r3, [r3, #4]
 800133a:	2b05      	cmp	r3, #5
 800133c:	d10e      	bne.n	800135c <HAL_RCC_OscConfig+0xc4>
 800133e:	4ba1      	ldr	r3, [pc, #644]	@ (80015c4 <HAL_RCC_OscConfig+0x32c>)
 8001340:	681a      	ldr	r2, [r3, #0]
 8001342:	4ba0      	ldr	r3, [pc, #640]	@ (80015c4 <HAL_RCC_OscConfig+0x32c>)
 8001344:	2180      	movs	r1, #128	@ 0x80
 8001346:	02c9      	lsls	r1, r1, #11
 8001348:	430a      	orrs	r2, r1
 800134a:	601a      	str	r2, [r3, #0]
 800134c:	4b9d      	ldr	r3, [pc, #628]	@ (80015c4 <HAL_RCC_OscConfig+0x32c>)
 800134e:	681a      	ldr	r2, [r3, #0]
 8001350:	4b9c      	ldr	r3, [pc, #624]	@ (80015c4 <HAL_RCC_OscConfig+0x32c>)
 8001352:	2180      	movs	r1, #128	@ 0x80
 8001354:	0249      	lsls	r1, r1, #9
 8001356:	430a      	orrs	r2, r1
 8001358:	601a      	str	r2, [r3, #0]
 800135a:	e00b      	b.n	8001374 <HAL_RCC_OscConfig+0xdc>
 800135c:	4b99      	ldr	r3, [pc, #612]	@ (80015c4 <HAL_RCC_OscConfig+0x32c>)
 800135e:	681a      	ldr	r2, [r3, #0]
 8001360:	4b98      	ldr	r3, [pc, #608]	@ (80015c4 <HAL_RCC_OscConfig+0x32c>)
 8001362:	4999      	ldr	r1, [pc, #612]	@ (80015c8 <HAL_RCC_OscConfig+0x330>)
 8001364:	400a      	ands	r2, r1
 8001366:	601a      	str	r2, [r3, #0]
 8001368:	4b96      	ldr	r3, [pc, #600]	@ (80015c4 <HAL_RCC_OscConfig+0x32c>)
 800136a:	681a      	ldr	r2, [r3, #0]
 800136c:	4b95      	ldr	r3, [pc, #596]	@ (80015c4 <HAL_RCC_OscConfig+0x32c>)
 800136e:	4997      	ldr	r1, [pc, #604]	@ (80015cc <HAL_RCC_OscConfig+0x334>)
 8001370:	400a      	ands	r2, r1
 8001372:	601a      	str	r2, [r3, #0]
 8001374:	687b      	ldr	r3, [r7, #4]
 8001376:	685b      	ldr	r3, [r3, #4]
 8001378:	2b00      	cmp	r3, #0
 800137a:	d014      	beq.n	80013a6 <HAL_RCC_OscConfig+0x10e>
 800137c:	f7ff fb00 	bl	8000980 <HAL_GetTick>
 8001380:	0003      	movs	r3, r0
 8001382:	61bb      	str	r3, [r7, #24]
 8001384:	e008      	b.n	8001398 <HAL_RCC_OscConfig+0x100>
 8001386:	f7ff fafb 	bl	8000980 <HAL_GetTick>
 800138a:	0002      	movs	r2, r0
 800138c:	69bb      	ldr	r3, [r7, #24]
 800138e:	1ad3      	subs	r3, r2, r3
 8001390:	2b64      	cmp	r3, #100	@ 0x64
 8001392:	d901      	bls.n	8001398 <HAL_RCC_OscConfig+0x100>
 8001394:	2303      	movs	r3, #3
 8001396:	e28a      	b.n	80018ae <HAL_RCC_OscConfig+0x616>
 8001398:	4b8a      	ldr	r3, [pc, #552]	@ (80015c4 <HAL_RCC_OscConfig+0x32c>)
 800139a:	681a      	ldr	r2, [r3, #0]
 800139c:	2380      	movs	r3, #128	@ 0x80
 800139e:	029b      	lsls	r3, r3, #10
 80013a0:	4013      	ands	r3, r2
 80013a2:	d0f0      	beq.n	8001386 <HAL_RCC_OscConfig+0xee>
 80013a4:	e015      	b.n	80013d2 <HAL_RCC_OscConfig+0x13a>
 80013a6:	f7ff faeb 	bl	8000980 <HAL_GetTick>
 80013aa:	0003      	movs	r3, r0
 80013ac:	61bb      	str	r3, [r7, #24]
 80013ae:	e008      	b.n	80013c2 <HAL_RCC_OscConfig+0x12a>
 80013b0:	f7ff fae6 	bl	8000980 <HAL_GetTick>
 80013b4:	0002      	movs	r2, r0
 80013b6:	69bb      	ldr	r3, [r7, #24]
 80013b8:	1ad3      	subs	r3, r2, r3
 80013ba:	2b64      	cmp	r3, #100	@ 0x64
 80013bc:	d901      	bls.n	80013c2 <HAL_RCC_OscConfig+0x12a>
 80013be:	2303      	movs	r3, #3
 80013c0:	e275      	b.n	80018ae <HAL_RCC_OscConfig+0x616>
 80013c2:	4b80      	ldr	r3, [pc, #512]	@ (80015c4 <HAL_RCC_OscConfig+0x32c>)
 80013c4:	681a      	ldr	r2, [r3, #0]
 80013c6:	2380      	movs	r3, #128	@ 0x80
 80013c8:	029b      	lsls	r3, r3, #10
 80013ca:	4013      	ands	r3, r2
 80013cc:	d1f0      	bne.n	80013b0 <HAL_RCC_OscConfig+0x118>
 80013ce:	e000      	b.n	80013d2 <HAL_RCC_OscConfig+0x13a>
 80013d0:	46c0      	nop			@ (mov r8, r8)
 80013d2:	687b      	ldr	r3, [r7, #4]
 80013d4:	681b      	ldr	r3, [r3, #0]
 80013d6:	2202      	movs	r2, #2
 80013d8:	4013      	ands	r3, r2
 80013da:	d100      	bne.n	80013de <HAL_RCC_OscConfig+0x146>
 80013dc:	e069      	b.n	80014b2 <HAL_RCC_OscConfig+0x21a>
 80013de:	4b79      	ldr	r3, [pc, #484]	@ (80015c4 <HAL_RCC_OscConfig+0x32c>)
 80013e0:	685b      	ldr	r3, [r3, #4]
 80013e2:	220c      	movs	r2, #12
 80013e4:	4013      	ands	r3, r2
 80013e6:	d00b      	beq.n	8001400 <HAL_RCC_OscConfig+0x168>
 80013e8:	4b76      	ldr	r3, [pc, #472]	@ (80015c4 <HAL_RCC_OscConfig+0x32c>)
 80013ea:	685b      	ldr	r3, [r3, #4]
 80013ec:	220c      	movs	r2, #12
 80013ee:	4013      	ands	r3, r2
 80013f0:	2b08      	cmp	r3, #8
 80013f2:	d11c      	bne.n	800142e <HAL_RCC_OscConfig+0x196>
 80013f4:	4b73      	ldr	r3, [pc, #460]	@ (80015c4 <HAL_RCC_OscConfig+0x32c>)
 80013f6:	685a      	ldr	r2, [r3, #4]
 80013f8:	2380      	movs	r3, #128	@ 0x80
 80013fa:	025b      	lsls	r3, r3, #9
 80013fc:	4013      	ands	r3, r2
 80013fe:	d116      	bne.n	800142e <HAL_RCC_OscConfig+0x196>
 8001400:	4b70      	ldr	r3, [pc, #448]	@ (80015c4 <HAL_RCC_OscConfig+0x32c>)
 8001402:	681b      	ldr	r3, [r3, #0]
 8001404:	2202      	movs	r2, #2
 8001406:	4013      	ands	r3, r2
 8001408:	d005      	beq.n	8001416 <HAL_RCC_OscConfig+0x17e>
 800140a:	687b      	ldr	r3, [r7, #4]
 800140c:	68db      	ldr	r3, [r3, #12]
 800140e:	2b01      	cmp	r3, #1
 8001410:	d001      	beq.n	8001416 <HAL_RCC_OscConfig+0x17e>
 8001412:	2301      	movs	r3, #1
 8001414:	e24b      	b.n	80018ae <HAL_RCC_OscConfig+0x616>
 8001416:	4b6b      	ldr	r3, [pc, #428]	@ (80015c4 <HAL_RCC_OscConfig+0x32c>)
 8001418:	681b      	ldr	r3, [r3, #0]
 800141a:	22f8      	movs	r2, #248	@ 0xf8
 800141c:	4393      	bics	r3, r2
 800141e:	0019      	movs	r1, r3
 8001420:	687b      	ldr	r3, [r7, #4]
 8001422:	691b      	ldr	r3, [r3, #16]
 8001424:	00da      	lsls	r2, r3, #3
 8001426:	4b67      	ldr	r3, [pc, #412]	@ (80015c4 <HAL_RCC_OscConfig+0x32c>)
 8001428:	430a      	orrs	r2, r1
 800142a:	601a      	str	r2, [r3, #0]
 800142c:	e041      	b.n	80014b2 <HAL_RCC_OscConfig+0x21a>
 800142e:	687b      	ldr	r3, [r7, #4]
 8001430:	68db      	ldr	r3, [r3, #12]
 8001432:	2b00      	cmp	r3, #0
 8001434:	d024      	beq.n	8001480 <HAL_RCC_OscConfig+0x1e8>
 8001436:	4b63      	ldr	r3, [pc, #396]	@ (80015c4 <HAL_RCC_OscConfig+0x32c>)
 8001438:	681a      	ldr	r2, [r3, #0]
 800143a:	4b62      	ldr	r3, [pc, #392]	@ (80015c4 <HAL_RCC_OscConfig+0x32c>)
 800143c:	2101      	movs	r1, #1
 800143e:	430a      	orrs	r2, r1
 8001440:	601a      	str	r2, [r3, #0]
 8001442:	f7ff fa9d 	bl	8000980 <HAL_GetTick>
 8001446:	0003      	movs	r3, r0
 8001448:	61bb      	str	r3, [r7, #24]
 800144a:	e008      	b.n	800145e <HAL_RCC_OscConfig+0x1c6>
 800144c:	f7ff fa98 	bl	8000980 <HAL_GetTick>
 8001450:	0002      	movs	r2, r0
 8001452:	69bb      	ldr	r3, [r7, #24]
 8001454:	1ad3      	subs	r3, r2, r3
 8001456:	2b02      	cmp	r3, #2
 8001458:	d901      	bls.n	800145e <HAL_RCC_OscConfig+0x1c6>
 800145a:	2303      	movs	r3, #3
 800145c:	e227      	b.n	80018ae <HAL_RCC_OscConfig+0x616>
 800145e:	4b59      	ldr	r3, [pc, #356]	@ (80015c4 <HAL_RCC_OscConfig+0x32c>)
 8001460:	681b      	ldr	r3, [r3, #0]
 8001462:	2202      	movs	r2, #2
 8001464:	4013      	ands	r3, r2
 8001466:	d0f1      	beq.n	800144c <HAL_RCC_OscConfig+0x1b4>
 8001468:	4b56      	ldr	r3, [pc, #344]	@ (80015c4 <HAL_RCC_OscConfig+0x32c>)
 800146a:	681b      	ldr	r3, [r3, #0]
 800146c:	22f8      	movs	r2, #248	@ 0xf8
 800146e:	4393      	bics	r3, r2
 8001470:	0019      	movs	r1, r3
 8001472:	687b      	ldr	r3, [r7, #4]
 8001474:	691b      	ldr	r3, [r3, #16]
 8001476:	00da      	lsls	r2, r3, #3
 8001478:	4b52      	ldr	r3, [pc, #328]	@ (80015c4 <HAL_RCC_OscConfig+0x32c>)
 800147a:	430a      	orrs	r2, r1
 800147c:	601a      	str	r2, [r3, #0]
 800147e:	e018      	b.n	80014b2 <HAL_RCC_OscConfig+0x21a>
 8001480:	4b50      	ldr	r3, [pc, #320]	@ (80015c4 <HAL_RCC_OscConfig+0x32c>)
 8001482:	681a      	ldr	r2, [r3, #0]
 8001484:	4b4f      	ldr	r3, [pc, #316]	@ (80015c4 <HAL_RCC_OscConfig+0x32c>)
 8001486:	2101      	movs	r1, #1
 8001488:	438a      	bics	r2, r1
 800148a:	601a      	str	r2, [r3, #0]
 800148c:	f7ff fa78 	bl	8000980 <HAL_GetTick>
 8001490:	0003      	movs	r3, r0
 8001492:	61bb      	str	r3, [r7, #24]
 8001494:	e008      	b.n	80014a8 <HAL_RCC_OscConfig+0x210>
 8001496:	f7ff fa73 	bl	8000980 <HAL_GetTick>
 800149a:	0002      	movs	r2, r0
 800149c:	69bb      	ldr	r3, [r7, #24]
 800149e:	1ad3      	subs	r3, r2, r3
 80014a0:	2b02      	cmp	r3, #2
 80014a2:	d901      	bls.n	80014a8 <HAL_RCC_OscConfig+0x210>
 80014a4:	2303      	movs	r3, #3
 80014a6:	e202      	b.n	80018ae <HAL_RCC_OscConfig+0x616>
 80014a8:	4b46      	ldr	r3, [pc, #280]	@ (80015c4 <HAL_RCC_OscConfig+0x32c>)
 80014aa:	681b      	ldr	r3, [r3, #0]
 80014ac:	2202      	movs	r2, #2
 80014ae:	4013      	ands	r3, r2
 80014b0:	d1f1      	bne.n	8001496 <HAL_RCC_OscConfig+0x1fe>
 80014b2:	687b      	ldr	r3, [r7, #4]
 80014b4:	681b      	ldr	r3, [r3, #0]
 80014b6:	2208      	movs	r2, #8
 80014b8:	4013      	ands	r3, r2
 80014ba:	d036      	beq.n	800152a <HAL_RCC_OscConfig+0x292>
 80014bc:	687b      	ldr	r3, [r7, #4]
 80014be:	69db      	ldr	r3, [r3, #28]
 80014c0:	2b00      	cmp	r3, #0
 80014c2:	d019      	beq.n	80014f8 <HAL_RCC_OscConfig+0x260>
 80014c4:	4b3f      	ldr	r3, [pc, #252]	@ (80015c4 <HAL_RCC_OscConfig+0x32c>)
 80014c6:	6a5a      	ldr	r2, [r3, #36]	@ 0x24
 80014c8:	4b3e      	ldr	r3, [pc, #248]	@ (80015c4 <HAL_RCC_OscConfig+0x32c>)
 80014ca:	2101      	movs	r1, #1
 80014cc:	430a      	orrs	r2, r1
 80014ce:	625a      	str	r2, [r3, #36]	@ 0x24
 80014d0:	f7ff fa56 	bl	8000980 <HAL_GetTick>
 80014d4:	0003      	movs	r3, r0
 80014d6:	61bb      	str	r3, [r7, #24]
 80014d8:	e008      	b.n	80014ec <HAL_RCC_OscConfig+0x254>
 80014da:	f7ff fa51 	bl	8000980 <HAL_GetTick>
 80014de:	0002      	movs	r2, r0
 80014e0:	69bb      	ldr	r3, [r7, #24]
 80014e2:	1ad3      	subs	r3, r2, r3
 80014e4:	2b02      	cmp	r3, #2
 80014e6:	d901      	bls.n	80014ec <HAL_RCC_OscConfig+0x254>
 80014e8:	2303      	movs	r3, #3
 80014ea:	e1e0      	b.n	80018ae <HAL_RCC_OscConfig+0x616>
 80014ec:	4b35      	ldr	r3, [pc, #212]	@ (80015c4 <HAL_RCC_OscConfig+0x32c>)
 80014ee:	6a5b      	ldr	r3, [r3, #36]	@ 0x24
 80014f0:	2202      	movs	r2, #2
 80014f2:	4013      	ands	r3, r2
 80014f4:	d0f1      	beq.n	80014da <HAL_RCC_OscConfig+0x242>
 80014f6:	e018      	b.n	800152a <HAL_RCC_OscConfig+0x292>
 80014f8:	4b32      	ldr	r3, [pc, #200]	@ (80015c4 <HAL_RCC_OscConfig+0x32c>)
 80014fa:	6a5a      	ldr	r2, [r3, #36]	@ 0x24
 80014fc:	4b31      	ldr	r3, [pc, #196]	@ (80015c4 <HAL_RCC_OscConfig+0x32c>)
 80014fe:	2101      	movs	r1, #1
 8001500:	438a      	bics	r2, r1
 8001502:	625a      	str	r2, [r3, #36]	@ 0x24
 8001504:	f7ff fa3c 	bl	8000980 <HAL_GetTick>
 8001508:	0003      	movs	r3, r0
 800150a:	61bb      	str	r3, [r7, #24]
 800150c:	e008      	b.n	8001520 <HAL_RCC_OscConfig+0x288>
 800150e:	f7ff fa37 	bl	8000980 <HAL_GetTick>
 8001512:	0002      	movs	r2, r0
 8001514:	69bb      	ldr	r3, [r7, #24]
 8001516:	1ad3      	subs	r3, r2, r3
 8001518:	2b02      	cmp	r3, #2
 800151a:	d901      	bls.n	8001520 <HAL_RCC_OscConfig+0x288>
 800151c:	2303      	movs	r3, #3
 800151e:	e1c6      	b.n	80018ae <HAL_RCC_OscConfig+0x616>
 8001520:	4b28      	ldr	r3, [pc, #160]	@ (80015c4 <HAL_RCC_OscConfig+0x32c>)
 8001522:	6a5b      	ldr	r3, [r3, #36]	@ 0x24
 8001524:	2202      	movs	r2, #2
 8001526:	4013      	ands	r3, r2
 8001528:	d1f1      	bne.n	800150e <HAL_RCC_OscConfig+0x276>
 800152a:	687b      	ldr	r3, [r7, #4]
 800152c:	681b      	ldr	r3, [r3, #0]
 800152e:	2204      	movs	r2, #4
 8001530:	4013      	ands	r3, r2
 8001532:	d100      	bne.n	8001536 <HAL_RCC_OscConfig+0x29e>
 8001534:	e0b4      	b.n	80016a0 <HAL_RCC_OscConfig+0x408>
 8001536:	201f      	movs	r0, #31
 8001538:	183b      	adds	r3, r7, r0
 800153a:	2200      	movs	r2, #0
 800153c:	701a      	strb	r2, [r3, #0]
 800153e:	4b21      	ldr	r3, [pc, #132]	@ (80015c4 <HAL_RCC_OscConfig+0x32c>)
 8001540:	69da      	ldr	r2, [r3, #28]
 8001542:	2380      	movs	r3, #128	@ 0x80
 8001544:	055b      	lsls	r3, r3, #21
 8001546:	4013      	ands	r3, r2
 8001548:	d110      	bne.n	800156c <HAL_RCC_OscConfig+0x2d4>
 800154a:	4b1e      	ldr	r3, [pc, #120]	@ (80015c4 <HAL_RCC_OscConfig+0x32c>)
 800154c:	69da      	ldr	r2, [r3, #28]
 800154e:	4b1d      	ldr	r3, [pc, #116]	@ (80015c4 <HAL_RCC_OscConfig+0x32c>)
 8001550:	2180      	movs	r1, #128	@ 0x80
 8001552:	0549      	lsls	r1, r1, #21
 8001554:	430a      	orrs	r2, r1
 8001556:	61da      	str	r2, [r3, #28]
 8001558:	4b1a      	ldr	r3, [pc, #104]	@ (80015c4 <HAL_RCC_OscConfig+0x32c>)
 800155a:	69da      	ldr	r2, [r3, #28]
 800155c:	2380      	movs	r3, #128	@ 0x80
 800155e:	055b      	lsls	r3, r3, #21
 8001560:	4013      	ands	r3, r2
 8001562:	60fb      	str	r3, [r7, #12]
 8001564:	68fb      	ldr	r3, [r7, #12]
 8001566:	183b      	adds	r3, r7, r0
 8001568:	2201      	movs	r2, #1
 800156a:	701a      	strb	r2, [r3, #0]
 800156c:	4b18      	ldr	r3, [pc, #96]	@ (80015d0 <HAL_RCC_OscConfig+0x338>)
 800156e:	681a      	ldr	r2, [r3, #0]
 8001570:	2380      	movs	r3, #128	@ 0x80
 8001572:	005b      	lsls	r3, r3, #1
 8001574:	4013      	ands	r3, r2
 8001576:	d11a      	bne.n	80015ae <HAL_RCC_OscConfig+0x316>
 8001578:	4b15      	ldr	r3, [pc, #84]	@ (80015d0 <HAL_RCC_OscConfig+0x338>)
 800157a:	681a      	ldr	r2, [r3, #0]
 800157c:	4b14      	ldr	r3, [pc, #80]	@ (80015d0 <HAL_RCC_OscConfig+0x338>)
 800157e:	2180      	movs	r1, #128	@ 0x80
 8001580:	0049      	lsls	r1, r1, #1
 8001582:	430a      	orrs	r2, r1
 8001584:	601a      	str	r2, [r3, #0]
 8001586:	f7ff f9fb 	bl	8000980 <HAL_GetTick>
 800158a:	0003      	movs	r3, r0
 800158c:	61bb      	str	r3, [r7, #24]
 800158e:	e008      	b.n	80015a2 <HAL_RCC_OscConfig+0x30a>
 8001590:	f7ff f9f6 	bl	8000980 <HAL_GetTick>
 8001594:	0002      	movs	r2, r0
 8001596:	69bb      	ldr	r3, [r7, #24]
 8001598:	1ad3      	subs	r3, r2, r3
 800159a:	2b64      	cmp	r3, #100	@ 0x64
 800159c:	d901      	bls.n	80015a2 <HAL_RCC_OscConfig+0x30a>
 800159e:	2303      	movs	r3, #3
 80015a0:	e185      	b.n	80018ae <HAL_RCC_OscConfig+0x616>
 80015a2:	4b0b      	ldr	r3, [pc, #44]	@ (80015d0 <HAL_RCC_OscConfig+0x338>)
 80015a4:	681a      	ldr	r2, [r3, #0]
 80015a6:	2380      	movs	r3, #128	@ 0x80
 80015a8:	005b      	lsls	r3, r3, #1
 80015aa:	4013      	ands	r3, r2
 80015ac:	d0f0      	beq.n	8001590 <HAL_RCC_OscConfig+0x2f8>
 80015ae:	687b      	ldr	r3, [r7, #4]
 80015b0:	689b      	ldr	r3, [r3, #8]
 80015b2:	2b01      	cmp	r3, #1
 80015b4:	d10e      	bne.n	80015d4 <HAL_RCC_OscConfig+0x33c>
 80015b6:	4b03      	ldr	r3, [pc, #12]	@ (80015c4 <HAL_RCC_OscConfig+0x32c>)
 80015b8:	6a1a      	ldr	r2, [r3, #32]
 80015ba:	4b02      	ldr	r3, [pc, #8]	@ (80015c4 <HAL_RCC_OscConfig+0x32c>)
 80015bc:	2101      	movs	r1, #1
 80015be:	430a      	orrs	r2, r1
 80015c0:	621a      	str	r2, [r3, #32]
 80015c2:	e035      	b.n	8001630 <HAL_RCC_OscConfig+0x398>
 80015c4:	40021000 	.word	0x40021000
 80015c8:	fffeffff 	.word	0xfffeffff
 80015cc:	fffbffff 	.word	0xfffbffff
 80015d0:	40007000 	.word	0x40007000
 80015d4:	687b      	ldr	r3, [r7, #4]
 80015d6:	689b      	ldr	r3, [r3, #8]
 80015d8:	2b00      	cmp	r3, #0
 80015da:	d10c      	bne.n	80015f6 <HAL_RCC_OscConfig+0x35e>
 80015dc:	4bb6      	ldr	r3, [pc, #728]	@ (80018b8 <HAL_RCC_OscConfig+0x620>)
 80015de:	6a1a      	ldr	r2, [r3, #32]
 80015e0:	4bb5      	ldr	r3, [pc, #724]	@ (80018b8 <HAL_RCC_OscConfig+0x620>)
 80015e2:	2101      	movs	r1, #1
 80015e4:	438a      	bics	r2, r1
 80015e6:	621a      	str	r2, [r3, #32]
 80015e8:	4bb3      	ldr	r3, [pc, #716]	@ (80018b8 <HAL_RCC_OscConfig+0x620>)
 80015ea:	6a1a      	ldr	r2, [r3, #32]
 80015ec:	4bb2      	ldr	r3, [pc, #712]	@ (80018b8 <HAL_RCC_OscConfig+0x620>)
 80015ee:	2104      	movs	r1, #4
 80015f0:	438a      	bics	r2, r1
 80015f2:	621a      	str	r2, [r3, #32]
 80015f4:	e01c      	b.n	8001630 <HAL_RCC_OscConfig+0x398>
 80015f6:	687b      	ldr	r3, [r7, #4]
 80015f8:	689b      	ldr	r3, [r3, #8]
 80015fa:	2b05      	cmp	r3, #5
 80015fc:	d10c      	bne.n	8001618 <HAL_RCC_OscConfig+0x380>
 80015fe:	4bae      	ldr	r3, [pc, #696]	@ (80018b8 <HAL_RCC_OscConfig+0x620>)
 8001600:	6a1a      	ldr	r2, [r3, #32]
 8001602:	4bad      	ldr	r3, [pc, #692]	@ (80018b8 <HAL_RCC_OscConfig+0x620>)
 8001604:	2104      	movs	r1, #4
 8001606:	430a      	orrs	r2, r1
 8001608:	621a      	str	r2, [r3, #32]
 800160a:	4bab      	ldr	r3, [pc, #684]	@ (80018b8 <HAL_RCC_OscConfig+0x620>)
 800160c:	6a1a      	ldr	r2, [r3, #32]
 800160e:	4baa      	ldr	r3, [pc, #680]	@ (80018b8 <HAL_RCC_OscConfig+0x620>)
 8001610:	2101      	movs	r1, #1
 8001612:	430a      	orrs	r2, r1
 8001614:	621a      	str	r2, [r3, #32]
 8001616:	e00b      	b.n	8001630 <HAL_RCC_OscConfig+0x398>
 8001618:	4ba7      	ldr	r3, [pc, #668]	@ (80018b8 <HAL_RCC_OscConfig+0x620>)
 800161a:	6a1a      	ldr	r2, [r3, #32]
 800161c:	4ba6      	ldr	r3, [pc, #664]	@ (80018b8 <HAL_RCC_OscConfig+0x620>)
 800161e:	2101      	movs	r1, #1
 8001620:	438a      	bics	r2, r1
 8001622:	621a      	str	r2, [r3, #32]
 8001624:	4ba4      	ldr	r3, [pc, #656]	@ (80018b8 <HAL_RCC_OscConfig+0x620>)
 8001626:	6a1a      	ldr	r2, [r3, #32]
 8001628:	4ba3      	ldr	r3, [pc, #652]	@ (80018b8 <HAL_RCC_OscConfig+0x620>)
 800162a:	2104      	movs	r1, #4
 800162c:	438a      	bics	r2, r1
 800162e:	621a      	str	r2, [r3, #32]
 8001630:	687b      	ldr	r3, [r7, #4]
 8001632:	689b      	ldr	r3, [r3, #8]
 8001634:	2b00      	cmp	r3, #0
 8001636:	d014      	beq.n	8001662 <HAL_RCC_OscConfig+0x3ca>
 8001638:	f7ff f9a2 	bl	8000980 <HAL_GetTick>
 800163c:	0003      	movs	r3, r0
 800163e:	61bb      	str	r3, [r7, #24]
 8001640:	e009      	b.n	8001656 <HAL_RCC_OscConfig+0x3be>
 8001642:	f7ff f99d 	bl	8000980 <HAL_GetTick>
 8001646:	0002      	movs	r2, r0
 8001648:	69bb      	ldr	r3, [r7, #24]
 800164a:	1ad3      	subs	r3, r2, r3
 800164c:	4a9b      	ldr	r2, [pc, #620]	@ (80018bc <HAL_RCC_OscConfig+0x624>)
 800164e:	4293      	cmp	r3, r2
 8001650:	d901      	bls.n	8001656 <HAL_RCC_OscConfig+0x3be>
 8001652:	2303      	movs	r3, #3
 8001654:	e12b      	b.n	80018ae <HAL_RCC_OscConfig+0x616>
 8001656:	4b98      	ldr	r3, [pc, #608]	@ (80018b8 <HAL_RCC_OscConfig+0x620>)
 8001658:	6a1b      	ldr	r3, [r3, #32]
 800165a:	2202      	movs	r2, #2
 800165c:	4013      	ands	r3, r2
 800165e:	d0f0      	beq.n	8001642 <HAL_RCC_OscConfig+0x3aa>
 8001660:	e013      	b.n	800168a <HAL_RCC_OscConfig+0x3f2>
 8001662:	f7ff f98d 	bl	8000980 <HAL_GetTick>
 8001666:	0003      	movs	r3, r0
 8001668:	61bb      	str	r3, [r7, #24]
 800166a:	e009      	b.n	8001680 <HAL_RCC_OscConfig+0x3e8>
 800166c:	f7ff f988 	bl	8000980 <HAL_GetTick>
 8001670:	0002      	movs	r2, r0
 8001672:	69bb      	ldr	r3, [r7, #24]
 8001674:	1ad3      	subs	r3, r2, r3
 8001676:	4a91      	ldr	r2, [pc, #580]	@ (80018bc <HAL_RCC_OscConfig+0x624>)
 8001678:	4293      	cmp	r3, r2
 800167a:	d901      	bls.n	8001680 <HAL_RCC_OscConfig+0x3e8>
 800167c:	2303      	movs	r3, #3
 800167e:	e116      	b.n	80018ae <HAL_RCC_OscConfig+0x616>
 8001680:	4b8d      	ldr	r3, [pc, #564]	@ (80018b8 <HAL_RCC_OscConfig+0x620>)
 8001682:	6a1b      	ldr	r3, [r3, #32]
 8001684:	2202      	movs	r2, #2
 8001686:	4013      	ands	r3, r2
 8001688:	d1f0      	bne.n	800166c <HAL_RCC_OscConfig+0x3d4>
 800168a:	231f      	movs	r3, #31
 800168c:	18fb      	adds	r3, r7, r3
 800168e:	781b      	ldrb	r3, [r3, #0]
 8001690:	2b01      	cmp	r3, #1
 8001692:	d105      	bne.n	80016a0 <HAL_RCC_OscConfig+0x408>
 8001694:	4b88      	ldr	r3, [pc, #544]	@ (80018b8 <HAL_RCC_OscConfig+0x620>)
 8001696:	69da      	ldr	r2, [r3, #28]
 8001698:	4b87      	ldr	r3, [pc, #540]	@ (80018b8 <HAL_RCC_OscConfig+0x620>)
 800169a:	4989      	ldr	r1, [pc, #548]	@ (80018c0 <HAL_RCC_OscConfig+0x628>)
 800169c:	400a      	ands	r2, r1
 800169e:	61da      	str	r2, [r3, #28]
 80016a0:	687b      	ldr	r3, [r7, #4]
 80016a2:	681b      	ldr	r3, [r3, #0]
 80016a4:	2210      	movs	r2, #16
 80016a6:	4013      	ands	r3, r2
 80016a8:	d063      	beq.n	8001772 <HAL_RCC_OscConfig+0x4da>
 80016aa:	687b      	ldr	r3, [r7, #4]
 80016ac:	695b      	ldr	r3, [r3, #20]
 80016ae:	2b01      	cmp	r3, #1
 80016b0:	d12a      	bne.n	8001708 <HAL_RCC_OscConfig+0x470>
 80016b2:	4b81      	ldr	r3, [pc, #516]	@ (80018b8 <HAL_RCC_OscConfig+0x620>)
 80016b4:	6b5a      	ldr	r2, [r3, #52]	@ 0x34
 80016b6:	4b80      	ldr	r3, [pc, #512]	@ (80018b8 <HAL_RCC_OscConfig+0x620>)
 80016b8:	2104      	movs	r1, #4
 80016ba:	430a      	orrs	r2, r1
 80016bc:	635a      	str	r2, [r3, #52]	@ 0x34
 80016be:	4b7e      	ldr	r3, [pc, #504]	@ (80018b8 <HAL_RCC_OscConfig+0x620>)
 80016c0:	6b5a      	ldr	r2, [r3, #52]	@ 0x34
 80016c2:	4b7d      	ldr	r3, [pc, #500]	@ (80018b8 <HAL_RCC_OscConfig+0x620>)
 80016c4:	2101      	movs	r1, #1
 80016c6:	430a      	orrs	r2, r1
 80016c8:	635a      	str	r2, [r3, #52]	@ 0x34
 80016ca:	f7ff f959 	bl	8000980 <HAL_GetTick>
 80016ce:	0003      	movs	r3, r0
 80016d0:	61bb      	str	r3, [r7, #24]
 80016d2:	e008      	b.n	80016e6 <HAL_RCC_OscConfig+0x44e>
 80016d4:	f7ff f954 	bl	8000980 <HAL_GetTick>
 80016d8:	0002      	movs	r2, r0
 80016da:	69bb      	ldr	r3, [r7, #24]
 80016dc:	1ad3      	subs	r3, r2, r3
 80016de:	2b02      	cmp	r3, #2
 80016e0:	d901      	bls.n	80016e6 <HAL_RCC_OscConfig+0x44e>
 80016e2:	2303      	movs	r3, #3
 80016e4:	e0e3      	b.n	80018ae <HAL_RCC_OscConfig+0x616>
 80016e6:	4b74      	ldr	r3, [pc, #464]	@ (80018b8 <HAL_RCC_OscConfig+0x620>)
 80016e8:	6b5b      	ldr	r3, [r3, #52]	@ 0x34
 80016ea:	2202      	movs	r2, #2
 80016ec:	4013      	ands	r3, r2
 80016ee:	d0f1      	beq.n	80016d4 <HAL_RCC_OscConfig+0x43c>
 80016f0:	4b71      	ldr	r3, [pc, #452]	@ (80018b8 <HAL_RCC_OscConfig+0x620>)
 80016f2:	6b5b      	ldr	r3, [r3, #52]	@ 0x34
 80016f4:	22f8      	movs	r2, #248	@ 0xf8
 80016f6:	4393      	bics	r3, r2
 80016f8:	0019      	movs	r1, r3
 80016fa:	687b      	ldr	r3, [r7, #4]
 80016fc:	699b      	ldr	r3, [r3, #24]
 80016fe:	00da      	lsls	r2, r3, #3
 8001700:	4b6d      	ldr	r3, [pc, #436]	@ (80018b8 <HAL_RCC_OscConfig+0x620>)
 8001702:	430a      	orrs	r2, r1
 8001704:	635a      	str	r2, [r3, #52]	@ 0x34
 8001706:	e034      	b.n	8001772 <HAL_RCC_OscConfig+0x4da>
 8001708:	687b      	ldr	r3, [r7, #4]
 800170a:	695b      	ldr	r3, [r3, #20]
 800170c:	3305      	adds	r3, #5
 800170e:	d111      	bne.n	8001734 <HAL_RCC_OscConfig+0x49c>
 8001710:	4b69      	ldr	r3, [pc, #420]	@ (80018b8 <HAL_RCC_OscConfig+0x620>)
 8001712:	6b5a      	ldr	r2, [r3, #52]	@ 0x34
 8001714:	4b68      	ldr	r3, [pc, #416]	@ (80018b8 <HAL_RCC_OscConfig+0x620>)
 8001716:	2104      	movs	r1, #4
 8001718:	438a      	bics	r2, r1
 800171a:	635a      	str	r2, [r3, #52]	@ 0x34
 800171c:	4b66      	ldr	r3, [pc, #408]	@ (80018b8 <HAL_RCC_OscConfig+0x620>)
 800171e:	6b5b      	ldr	r3, [r3, #52]	@ 0x34
 8001720:	22f8      	movs	r2, #248	@ 0xf8
 8001722:	4393      	bics	r3, r2
 8001724:	0019      	movs	r1, r3
 8001726:	687b      	ldr	r3, [r7, #4]
 8001728:	699b      	ldr	r3, [r3, #24]
 800172a:	00da      	lsls	r2, r3, #3
 800172c:	4b62      	ldr	r3, [pc, #392]	@ (80018b8 <HAL_RCC_OscConfig+0x620>)
 800172e:	430a      	orrs	r2, r1
 8001730:	635a      	str	r2, [r3, #52]	@ 0x34
 8001732:	e01e      	b.n	8001772 <HAL_RCC_OscConfig+0x4da>
 8001734:	4b60      	ldr	r3, [pc, #384]	@ (80018b8 <HAL_RCC_OscConfig+0x620>)
 8001736:	6b5a      	ldr	r2, [r3, #52]	@ 0x34
 8001738:	4b5f      	ldr	r3, [pc, #380]	@ (80018b8 <HAL_RCC_OscConfig+0x620>)
 800173a:	2104      	movs	r1, #4
 800173c:	430a      	orrs	r2, r1
 800173e:	635a      	str	r2, [r3, #52]	@ 0x34
 8001740:	4b5d      	ldr	r3, [pc, #372]	@ (80018b8 <HAL_RCC_OscConfig+0x620>)
 8001742:	6b5a      	ldr	r2, [r3, #52]	@ 0x34
 8001744:	4b5c      	ldr	r3, [pc, #368]	@ (80018b8 <HAL_RCC_OscConfig+0x620>)
 8001746:	2101      	movs	r1, #1
 8001748:	438a      	bics	r2, r1
 800174a:	635a      	str	r2, [r3, #52]	@ 0x34
 800174c:	f7ff f918 	bl	8000980 <HAL_GetTick>
 8001750:	0003      	movs	r3, r0
 8001752:	61bb      	str	r3, [r7, #24]
 8001754:	e008      	b.n	8001768 <HAL_RCC_OscConfig+0x4d0>
 8001756:	f7ff f913 	bl	8000980 <HAL_GetTick>
 800175a:	0002      	movs	r2, r0
 800175c:	69bb      	ldr	r3, [r7, #24]
 800175e:	1ad3      	subs	r3, r2, r3
 8001760:	2b02      	cmp	r3, #2
 8001762:	d901      	bls.n	8001768 <HAL_RCC_OscConfig+0x4d0>
 8001764:	2303      	movs	r3, #3
 8001766:	e0a2      	b.n	80018ae <HAL_RCC_OscConfig+0x616>
 8001768:	4b53      	ldr	r3, [pc, #332]	@ (80018b8 <HAL_RCC_OscConfig+0x620>)
 800176a:	6b5b      	ldr	r3, [r3, #52]	@ 0x34
 800176c:	2202      	movs	r2, #2
 800176e:	4013      	ands	r3, r2
 8001770:	d1f1      	bne.n	8001756 <HAL_RCC_OscConfig+0x4be>
 8001772:	687b      	ldr	r3, [r7, #4]
 8001774:	6a1b      	ldr	r3, [r3, #32]
 8001776:	2b00      	cmp	r3, #0
 8001778:	d100      	bne.n	800177c <HAL_RCC_OscConfig+0x4e4>
 800177a:	e097      	b.n	80018ac <HAL_RCC_OscConfig+0x614>
 800177c:	4b4e      	ldr	r3, [pc, #312]	@ (80018b8 <HAL_RCC_OscConfig+0x620>)
 800177e:	685b      	ldr	r3, [r3, #4]
 8001780:	220c      	movs	r2, #12
 8001782:	4013      	ands	r3, r2
 8001784:	2b08      	cmp	r3, #8
 8001786:	d100      	bne.n	800178a <HAL_RCC_OscConfig+0x4f2>
 8001788:	e06b      	b.n	8001862 <HAL_RCC_OscConfig+0x5ca>
 800178a:	687b      	ldr	r3, [r7, #4]
 800178c:	6a1b      	ldr	r3, [r3, #32]
 800178e:	2b02      	cmp	r3, #2
 8001790:	d14c      	bne.n	800182c <HAL_RCC_OscConfig+0x594>
 8001792:	4b49      	ldr	r3, [pc, #292]	@ (80018b8 <HAL_RCC_OscConfig+0x620>)
 8001794:	681a      	ldr	r2, [r3, #0]
 8001796:	4b48      	ldr	r3, [pc, #288]	@ (80018b8 <HAL_RCC_OscConfig+0x620>)
 8001798:	494a      	ldr	r1, [pc, #296]	@ (80018c4 <HAL_RCC_OscConfig+0x62c>)
 800179a:	400a      	ands	r2, r1
 800179c:	601a      	str	r2, [r3, #0]
 800179e:	f7ff f8ef 	bl	8000980 <HAL_GetTick>
 80017a2:	0003      	movs	r3, r0
 80017a4:	61bb      	str	r3, [r7, #24]
 80017a6:	e008      	b.n	80017ba <HAL_RCC_OscConfig+0x522>
 80017a8:	f7ff f8ea 	bl	8000980 <HAL_GetTick>
 80017ac:	0002      	movs	r2, r0
 80017ae:	69bb      	ldr	r3, [r7, #24]
 80017b0:	1ad3      	subs	r3, r2, r3
 80017b2:	2b02      	cmp	r3, #2
 80017b4:	d901      	bls.n	80017ba <HAL_RCC_OscConfig+0x522>
 80017b6:	2303      	movs	r3, #3
 80017b8:	e079      	b.n	80018ae <HAL_RCC_OscConfig+0x616>
 80017ba:	4b3f      	ldr	r3, [pc, #252]	@ (80018b8 <HAL_RCC_OscConfig+0x620>)
 80017bc:	681a      	ldr	r2, [r3, #0]
 80017be:	2380      	movs	r3, #128	@ 0x80
 80017c0:	049b      	lsls	r3, r3, #18
 80017c2:	4013      	ands	r3, r2
 80017c4:	d1f0      	bne.n	80017a8 <HAL_RCC_OscConfig+0x510>
 80017c6:	4b3c      	ldr	r3, [pc, #240]	@ (80018b8 <HAL_RCC_OscConfig+0x620>)
 80017c8:	6adb      	ldr	r3, [r3, #44]	@ 0x2c
 80017ca:	220f      	movs	r2, #15
 80017cc:	4393      	bics	r3, r2
 80017ce:	0019      	movs	r1, r3
 80017d0:	687b      	ldr	r3, [r7, #4]
 80017d2:	6ada      	ldr	r2, [r3, #44]	@ 0x2c
 80017d4:	4b38      	ldr	r3, [pc, #224]	@ (80018b8 <HAL_RCC_OscConfig+0x620>)
 80017d6:	430a      	orrs	r2, r1
 80017d8:	62da      	str	r2, [r3, #44]	@ 0x2c
 80017da:	4b37      	ldr	r3, [pc, #220]	@ (80018b8 <HAL_RCC_OscConfig+0x620>)
 80017dc:	685b      	ldr	r3, [r3, #4]
 80017de:	4a3a      	ldr	r2, [pc, #232]	@ (80018c8 <HAL_RCC_OscConfig+0x630>)
 80017e0:	4013      	ands	r3, r2
 80017e2:	0019      	movs	r1, r3
 80017e4:	687b      	ldr	r3, [r7, #4]
 80017e6:	6a9a      	ldr	r2, [r3, #40]	@ 0x28
 80017e8:	687b      	ldr	r3, [r7, #4]
 80017ea:	6a5b      	ldr	r3, [r3, #36]	@ 0x24
 80017ec:	431a      	orrs	r2, r3
 80017ee:	4b32      	ldr	r3, [pc, #200]	@ (80018b8 <HAL_RCC_OscConfig+0x620>)
 80017f0:	430a      	orrs	r2, r1
 80017f2:	605a      	str	r2, [r3, #4]
 80017f4:	4b30      	ldr	r3, [pc, #192]	@ (80018b8 <HAL_RCC_OscConfig+0x620>)
 80017f6:	681a      	ldr	r2, [r3, #0]
 80017f8:	4b2f      	ldr	r3, [pc, #188]	@ (80018b8 <HAL_RCC_OscConfig+0x620>)
 80017fa:	2180      	movs	r1, #128	@ 0x80
 80017fc:	0449      	lsls	r1, r1, #17
 80017fe:	430a      	orrs	r2, r1
 8001800:	601a      	str	r2, [r3, #0]
 8001802:	f7ff f8bd 	bl	8000980 <HAL_GetTick>
 8001806:	0003      	movs	r3, r0
 8001808:	61bb      	str	r3, [r7, #24]
 800180a:	e008      	b.n	800181e <HAL_RCC_OscConfig+0x586>
 800180c:	f7ff f8b8 	bl	8000980 <HAL_GetTick>
 8001810:	0002      	movs	r2, r0
 8001812:	69bb      	ldr	r3, [r7, #24]
 8001814:	1ad3      	subs	r3, r2, r3
 8001816:	2b02      	cmp	r3, #2
 8001818:	d901      	bls.n	800181e <HAL_RCC_OscConfig+0x586>
 800181a:	2303      	movs	r3, #3
 800181c:	e047      	b.n	80018ae <HAL_RCC_OscConfig+0x616>
 800181e:	4b26      	ldr	r3, [pc, #152]	@ (80018b8 <HAL_RCC_OscConfig+0x620>)
 8001820:	681a      	ldr	r2, [r3, #0]
 8001822:	2380      	movs	r3, #128	@ 0x80
 8001824:	049b      	lsls	r3, r3, #18
 8001826:	4013      	ands	r3, r2
 8001828:	d0f0      	beq.n	800180c <HAL_RCC_OscConfig+0x574>
 800182a:	e03f      	b.n	80018ac <HAL_RCC_OscConfig+0x614>
 800182c:	4b22      	ldr	r3, [pc, #136]	@ (80018b8 <HAL_RCC_OscConfig+0x620>)
 800182e:	681a      	ldr	r2, [r3, #0]
 8001830:	4b21      	ldr	r3, [pc, #132]	@ (80018b8 <HAL_RCC_OscConfig+0x620>)
 8001832:	4924      	ldr	r1, [pc, #144]	@ (80018c4 <HAL_RCC_OscConfig+0x62c>)
 8001834:	400a      	ands	r2, r1
 8001836:	601a      	str	r2, [r3, #0]
 8001838:	f7ff f8a2 	bl	8000980 <HAL_GetTick>
 800183c:	0003      	movs	r3, r0
 800183e:	61bb      	str	r3, [r7, #24]
 8001840:	e008      	b.n	8001854 <HAL_RCC_OscConfig+0x5bc>
 8001842:	f7ff f89d 	bl	8000980 <HAL_GetTick>
 8001846:	0002      	movs	r2, r0
 8001848:	69bb      	ldr	r3, [r7, #24]
 800184a:	1ad3      	subs	r3, r2, r3
 800184c:	2b02      	cmp	r3, #2
 800184e:	d901      	bls.n	8001854 <HAL_RCC_OscConfig+0x5bc>
 8001850:	2303      	movs	r3, #3
 8001852:	e02c      	b.n	80018ae <HAL_RCC_OscConfig+0x616>
 8001854:	4b18      	ldr	r3, [pc, #96]	@ (80018b8 <HAL_RCC_OscConfig+0x620>)
 8001856:	681a      	ldr	r2, [r3, #0]
 8001858:	2380      	movs	r3, #128	@ 0x80
 800185a:	049b      	lsls	r3, r3, #18
 800185c:	4013      	ands	r3, r2
 800185e:	d1f0      	bne.n	8001842 <HAL_RCC_OscConfig+0x5aa>
 8001860:	e024      	b.n	80018ac <HAL_RCC_OscConfig+0x614>
 8001862:	687b      	ldr	r3, [r7, #4]
 8001864:	6a1b      	ldr	r3, [r3, #32]
 8001866:	2b01      	cmp	r3, #1
 8001868:	d101      	bne.n	800186e <HAL_RCC_OscConfig+0x5d6>
 800186a:	2301      	movs	r3, #1
 800186c:	e01f      	b.n	80018ae <HAL_RCC_OscConfig+0x616>
 800186e:	4b12      	ldr	r3, [pc, #72]	@ (80018b8 <HAL_RCC_OscConfig+0x620>)
 8001870:	685b      	ldr	r3, [r3, #4]
 8001872:	617b      	str	r3, [r7, #20]
 8001874:	4b10      	ldr	r3, [pc, #64]	@ (80018b8 <HAL_RCC_OscConfig+0x620>)
 8001876:	6adb      	ldr	r3, [r3, #44]	@ 0x2c
 8001878:	613b      	str	r3, [r7, #16]
 800187a:	697a      	ldr	r2, [r7, #20]
 800187c:	2380      	movs	r3, #128	@ 0x80
 800187e:	025b      	lsls	r3, r3, #9
 8001880:	401a      	ands	r2, r3
 8001882:	687b      	ldr	r3, [r7, #4]
 8001884:	6a5b      	ldr	r3, [r3, #36]	@ 0x24
 8001886:	429a      	cmp	r2, r3
 8001888:	d10e      	bne.n	80018a8 <HAL_RCC_OscConfig+0x610>
 800188a:	693b      	ldr	r3, [r7, #16]
 800188c:	220f      	movs	r2, #15
 800188e:	401a      	ands	r2, r3
 8001890:	687b      	ldr	r3, [r7, #4]
 8001892:	6adb      	ldr	r3, [r3, #44]	@ 0x2c
 8001894:	429a      	cmp	r2, r3
 8001896:	d107      	bne.n	80018a8 <HAL_RCC_OscConfig+0x610>
 8001898:	697a      	ldr	r2, [r7, #20]
 800189a:	23f0      	movs	r3, #240	@ 0xf0
 800189c:	039b      	lsls	r3, r3, #14
 800189e:	401a      	ands	r2, r3
 80018a0:	687b      	ldr	r3, [r7, #4]
 80018a2:	6a9b      	ldr	r3, [r3, #40]	@ 0x28
 80018a4:	429a      	cmp	r2, r3
 80018a6:	d001      	beq.n	80018ac <HAL_RCC_OscConfig+0x614>
 80018a8:	2301      	movs	r3, #1
 80018aa:	e000      	b.n	80018ae <HAL_RCC_OscConfig+0x616>
 80018ac:	2300      	movs	r3, #0
 80018ae:	0018      	movs	r0, r3
 80018b0:	46bd      	mov	sp, r7
 80018b2:	b008      	add	sp, #32
 80018b4:	bd80      	pop	{r7, pc}
 80018b6:	46c0      	nop			@ (mov r8, r8)
 80018b8:	40021000 	.word	0x40021000
 80018bc:	00001388 	.word	0x00001388
 80018c0:	efffffff 	.word	0xefffffff
 80018c4:	feffffff 	.word	0xfeffffff
 80018c8:	ffc2ffff 	.word	0xffc2ffff

080018cc <HAL_RCC_ClockConfig>:
 80018cc:	b580      	push	{r7, lr}
 80018ce:	b084      	sub	sp, #16
 80018d0:	af00      	add	r7, sp, #0
 80018d2:	6078      	str	r0, [r7, #4]
 80018d4:	6039      	str	r1, [r7, #0]
 80018d6:	687b      	ldr	r3, [r7, #4]
 80018d8:	2b00      	cmp	r3, #0
 80018da:	d101      	bne.n	80018e0 <HAL_RCC_ClockConfig+0x14>
 80018dc:	2301      	movs	r3, #1
 80018de:	e0b3      	b.n	8001a48 <HAL_RCC_ClockConfig+0x17c>
 80018e0:	4b5b      	ldr	r3, [pc, #364]	@ (8001a50 <HAL_RCC_ClockConfig+0x184>)
 80018e2:	681b      	ldr	r3, [r3, #0]
 80018e4:	2201      	movs	r2, #1
 80018e6:	4013      	ands	r3, r2
 80018e8:	683a      	ldr	r2, [r7, #0]
 80018ea:	429a      	cmp	r2, r3
 80018ec:	d911      	bls.n	8001912 <HAL_RCC_ClockConfig+0x46>
 80018ee:	4b58      	ldr	r3, [pc, #352]	@ (8001a50 <HAL_RCC_ClockConfig+0x184>)
 80018f0:	681b      	ldr	r3, [r3, #0]
 80018f2:	2201      	movs	r2, #1
 80018f4:	4393      	bics	r3, r2
 80018f6:	0019      	movs	r1, r3
 80018f8:	4b55      	ldr	r3, [pc, #340]	@ (8001a50 <HAL_RCC_ClockConfig+0x184>)
 80018fa:	683a      	ldr	r2, [r7, #0]
 80018fc:	430a      	orrs	r2, r1
 80018fe:	601a      	str	r2, [r3, #0]
 8001900:	4b53      	ldr	r3, [pc, #332]	@ (8001a50 <HAL_RCC_ClockConfig+0x184>)
 8001902:	681b      	ldr	r3, [r3, #0]
 8001904:	2201      	movs	r2, #1
 8001906:	4013      	ands	r3, r2
 8001908:	683a      	ldr	r2, [r7, #0]
 800190a:	429a      	cmp	r2, r3
 800190c:	d001      	beq.n	8001912 <HAL_RCC_ClockConfig+0x46>
 800190e:	2301      	movs	r3, #1
 8001910:	e09a      	b.n	8001a48 <HAL_RCC_ClockConfig+0x17c>
 8001912:	687b      	ldr	r3, [r7, #4]
 8001914:	681b      	ldr	r3, [r3, #0]
 8001916:	2202      	movs	r2, #2
 8001918:	4013      	ands	r3, r2
 800191a:	d015      	beq.n	8001948 <HAL_RCC_ClockConfig+0x7c>
 800191c:	687b      	ldr	r3, [r7, #4]
 800191e:	681b      	ldr	r3, [r3, #0]
 8001920:	2204      	movs	r2, #4
 8001922:	4013      	ands	r3, r2
 8001924:	d006      	beq.n	8001934 <HAL_RCC_ClockConfig+0x68>
 8001926:	4b4b      	ldr	r3, [pc, #300]	@ (8001a54 <HAL_RCC_ClockConfig+0x188>)
 8001928:	685a      	ldr	r2, [r3, #4]
 800192a:	4b4a      	ldr	r3, [pc, #296]	@ (8001a54 <HAL_RCC_ClockConfig+0x188>)
 800192c:	21e0      	movs	r1, #224	@ 0xe0
 800192e:	00c9      	lsls	r1, r1, #3
 8001930:	430a      	orrs	r2, r1
 8001932:	605a      	str	r2, [r3, #4]
 8001934:	4b47      	ldr	r3, [pc, #284]	@ (8001a54 <HAL_RCC_ClockConfig+0x188>)
 8001936:	685b      	ldr	r3, [r3, #4]
 8001938:	22f0      	movs	r2, #240	@ 0xf0
 800193a:	4393      	bics	r3, r2
 800193c:	0019      	movs	r1, r3
 800193e:	687b      	ldr	r3, [r7, #4]
 8001940:	689a      	ldr	r2, [r3, #8]
 8001942:	4b44      	ldr	r3, [pc, #272]	@ (8001a54 <HAL_RCC_ClockConfig+0x188>)
 8001944:	430a      	orrs	r2, r1
 8001946:	605a      	str	r2, [r3, #4]
 8001948:	687b      	ldr	r3, [r7, #4]
 800194a:	681b      	ldr	r3, [r3, #0]
 800194c:	2201      	movs	r2, #1
 800194e:	4013      	ands	r3, r2
 8001950:	d040      	beq.n	80019d4 <HAL_RCC_ClockConfig+0x108>
 8001952:	687b      	ldr	r3, [r7, #4]
 8001954:	685b      	ldr	r3, [r3, #4]
 8001956:	2b01      	cmp	r3, #1
 8001958:	d107      	bne.n	800196a <HAL_RCC_ClockConfig+0x9e>
 800195a:	4b3e      	ldr	r3, [pc, #248]	@ (8001a54 <HAL_RCC_ClockConfig+0x188>)
 800195c:	681a      	ldr	r2, [r3, #0]
 800195e:	2380      	movs	r3, #128	@ 0x80
 8001960:	029b      	lsls	r3, r3, #10
 8001962:	4013      	ands	r3, r2
 8001964:	d114      	bne.n	8001990 <HAL_RCC_ClockConfig+0xc4>
 8001966:	2301      	movs	r3, #1
 8001968:	e06e      	b.n	8001a48 <HAL_RCC_ClockConfig+0x17c>
 800196a:	687b      	ldr	r3, [r7, #4]
 800196c:	685b      	ldr	r3, [r3, #4]
 800196e:	2b02      	cmp	r3, #2
 8001970:	d107      	bne.n	8001982 <HAL_RCC_ClockConfig+0xb6>
 8001972:	4b38      	ldr	r3, [pc, #224]	@ (8001a54 <HAL_RCC_ClockConfig+0x188>)
 8001974:	681a      	ldr	r2, [r3, #0]
 8001976:	2380      	movs	r3, #128	@ 0x80
 8001978:	049b      	lsls	r3, r3, #18
 800197a:	4013      	ands	r3, r2
 800197c:	d108      	bne.n	8001990 <HAL_RCC_ClockConfig+0xc4>
 800197e:	2301      	movs	r3, #1
 8001980:	e062      	b.n	8001a48 <HAL_RCC_ClockConfig+0x17c>
 8001982:	4b34      	ldr	r3, [pc, #208]	@ (8001a54 <HAL_RCC_ClockConfig+0x188>)
 8001984:	681b      	ldr	r3, [r3, #0]
 8001986:	2202      	movs	r2, #2
 8001988:	4013      	ands	r3, r2
 800198a:	d101      	bne.n	8001990 <HAL_RCC_ClockConfig+0xc4>
 800198c:	2301      	movs	r3, #1
 800198e:	e05b      	b.n	8001a48 <HAL_RCC_ClockConfig+0x17c>
 8001990:	4b30      	ldr	r3, [pc, #192]	@ (8001a54 <HAL_RCC_ClockConfig+0x188>)
 8001992:	685b      	ldr	r3, [r3, #4]
 8001994:	2203      	movs	r2, #3
 8001996:	4393      	bics	r3, r2
 8001998:	0019      	movs	r1, r3
 800199a:	687b      	ldr	r3, [r7, #4]
 800199c:	685a      	ldr	r2, [r3, #4]
 800199e:	4b2d      	ldr	r3, [pc, #180]	@ (8001a54 <HAL_RCC_ClockConfig+0x188>)
 80019a0:	430a      	orrs	r2, r1
 80019a2:	605a      	str	r2, [r3, #4]
 80019a4:	f7fe ffec 	bl	8000980 <HAL_GetTick>
 80019a8:	0003      	movs	r3, r0
 80019aa:	60fb      	str	r3, [r7, #12]
 80019ac:	e009      	b.n	80019c2 <HAL_RCC_ClockConfig+0xf6>
 80019ae:	f7fe ffe7 	bl	8000980 <HAL_GetTick>
 80019b2:	0002      	movs	r2, r0
 80019b4:	68fb      	ldr	r3, [r7, #12]
 80019b6:	1ad3      	subs	r3, r2, r3
 80019b8:	4a27      	ldr	r2, [pc, #156]	@ (8001a58 <HAL_RCC_ClockConfig+0x18c>)
 80019ba:	4293      	cmp	r3, r2
 80019bc:	d901      	bls.n	80019c2 <HAL_RCC_ClockConfig+0xf6>
 80019be:	2303      	movs	r3, #3
 80019c0:	e042      	b.n	8001a48 <HAL_RCC_ClockConfig+0x17c>
 80019c2:	4b24      	ldr	r3, [pc, #144]	@ (8001a54 <HAL_RCC_ClockConfig+0x188>)
 80019c4:	685b      	ldr	r3, [r3, #4]
 80019c6:	220c      	movs	r2, #12
 80019c8:	401a      	ands	r2, r3
 80019ca:	687b      	ldr	r3, [r7, #4]
 80019cc:	685b      	ldr	r3, [r3, #4]
 80019ce:	009b      	lsls	r3, r3, #2
 80019d0:	429a      	cmp	r2, r3
 80019d2:	d1ec      	bne.n	80019ae <HAL_RCC_ClockConfig+0xe2>
 80019d4:	4b1e      	ldr	r3, [pc, #120]	@ (8001a50 <HAL_RCC_ClockConfig+0x184>)
 80019d6:	681b      	ldr	r3, [r3, #0]
 80019d8:	2201      	movs	r2, #1
 80019da:	4013      	ands	r3, r2
 80019dc:	683a      	ldr	r2, [r7, #0]
 80019de:	429a      	cmp	r2, r3
 80019e0:	d211      	bcs.n	8001a06 <HAL_RCC_ClockConfig+0x13a>
 80019e2:	4b1b      	ldr	r3, [pc, #108]	@ (8001a50 <HAL_RCC_ClockConfig+0x184>)
 80019e4:	681b      	ldr	r3, [r3, #0]
 80019e6:	2201      	movs	r2, #1
 80019e8:	4393      	bics	r3, r2
 80019ea:	0019      	movs	r1, r3
 80019ec:	4b18      	ldr	r3, [pc, #96]	@ (8001a50 <HAL_RCC_ClockConfig+0x184>)
 80019ee:	683a      	ldr	r2, [r7, #0]
 80019f0:	430a      	orrs	r2, r1
 80019f2:	601a      	str	r2, [r3, #0]
 80019f4:	4b16      	ldr	r3, [pc, #88]	@ (8001a50 <HAL_RCC_ClockConfig+0x184>)
 80019f6:	681b      	ldr	r3, [r3, #0]
 80019f8:	2201      	movs	r2, #1
 80019fa:	4013      	ands	r3, r2
 80019fc:	683a      	ldr	r2, [r7, #0]
 80019fe:	429a      	cmp	r2, r3
 8001a00:	d001      	beq.n	8001a06 <HAL_RCC_ClockConfig+0x13a>
 8001a02:	2301      	movs	r3, #1
 8001a04:	e020      	b.n	8001a48 <HAL_RCC_ClockConfig+0x17c>
 8001a06:	687b      	ldr	r3, [r7, #4]
 8001a08:	681b      	ldr	r3, [r3, #0]
 8001a0a:	2204      	movs	r2, #4
 8001a0c:	4013      	ands	r3, r2
 8001a0e:	d009      	beq.n	8001a24 <HAL_RCC_ClockConfig+0x158>
 8001a10:	4b10      	ldr	r3, [pc, #64]	@ (8001a54 <HAL_RCC_ClockConfig+0x188>)
 8001a12:	685b      	ldr	r3, [r3, #4]
 8001a14:	4a11      	ldr	r2, [pc, #68]	@ (8001a5c <HAL_RCC_ClockConfig+0x190>)
 8001a16:	4013      	ands	r3, r2
 8001a18:	0019      	movs	r1, r3
 8001a1a:	687b      	ldr	r3, [r7, #4]
 8001a1c:	68da      	ldr	r2, [r3, #12]
 8001a1e:	4b0d      	ldr	r3, [pc, #52]	@ (8001a54 <HAL_RCC_ClockConfig+0x188>)
 8001a20:	430a      	orrs	r2, r1
 8001a22:	605a      	str	r2, [r3, #4]
 8001a24:	f000 f820 	bl	8001a68 <HAL_RCC_GetSysClockFreq>
 8001a28:	0001      	movs	r1, r0
 8001a2a:	4b0a      	ldr	r3, [pc, #40]	@ (8001a54 <HAL_RCC_ClockConfig+0x188>)
 8001a2c:	685b      	ldr	r3, [r3, #4]
 8001a2e:	091b      	lsrs	r3, r3, #4
 8001a30:	220f      	movs	r2, #15
 8001a32:	4013      	ands	r3, r2
 8001a34:	4a0a      	ldr	r2, [pc, #40]	@ (8001a60 <HAL_RCC_ClockConfig+0x194>)
 8001a36:	5cd3      	ldrb	r3, [r2, r3]
 8001a38:	000a      	movs	r2, r1
 8001a3a:	40da      	lsrs	r2, r3
 8001a3c:	4b09      	ldr	r3, [pc, #36]	@ (8001a64 <HAL_RCC_ClockConfig+0x198>)
 8001a3e:	601a      	str	r2, [r3, #0]
 8001a40:	2003      	movs	r0, #3
 8001a42:	f7fe ff57 	bl	80008f4 <HAL_InitTick>
 8001a46:	2300      	movs	r3, #0
 8001a48:	0018      	movs	r0, r3
 8001a4a:	46bd      	mov	sp, r7
 8001a4c:	b004      	add	sp, #16
 8001a4e:	bd80      	pop	{r7, pc}
 8001a50:	40022000 	.word	0x40022000
 8001a54:	40021000 	.word	0x40021000
 8001a58:	00001388 	.word	0x00001388
 8001a5c:	fffff8ff 	.word	0xfffff8ff
 8001a60:	08003120 	.word	0x08003120
 8001a64:	20000000 	.word	0x20000000

08001a68 <HAL_RCC_GetSysClockFreq>:
 8001a68:	b580      	push	{r7, lr}
 8001a6a:	b086      	sub	sp, #24
 8001a6c:	af00      	add	r7, sp, #0
 8001a6e:	2300      	movs	r3, #0
 8001a70:	60fb      	str	r3, [r7, #12]
 8001a72:	2300      	movs	r3, #0
 8001a74:	60bb      	str	r3, [r7, #8]
 8001a76:	2300      	movs	r3, #0
 8001a78:	617b      	str	r3, [r7, #20]
 8001a7a:	2300      	movs	r3, #0
 8001a7c:	607b      	str	r3, [r7, #4]
 8001a7e:	2300      	movs	r3, #0
 8001a80:	613b      	str	r3, [r7, #16]
 8001a82:	4b20      	ldr	r3, [pc, #128]	@ (8001b04 <HAL_RCC_GetSysClockFreq+0x9c>)
 8001a84:	685b      	ldr	r3, [r3, #4]
 8001a86:	60fb      	str	r3, [r7, #12]
 8001a88:	68fb      	ldr	r3, [r7, #12]
 8001a8a:	220c      	movs	r2, #12
 8001a8c:	4013      	ands	r3, r2
 8001a8e:	2b04      	cmp	r3, #4
 8001a90:	d002      	beq.n	8001a98 <HAL_RCC_GetSysClockFreq+0x30>
 8001a92:	2b08      	cmp	r3, #8
 8001a94:	d003      	beq.n	8001a9e <HAL_RCC_GetSysClockFreq+0x36>
 8001a96:	e02c      	b.n	8001af2 <HAL_RCC_GetSysClockFreq+0x8a>
 8001a98:	4b1b      	ldr	r3, [pc, #108]	@ (8001b08 <HAL_RCC_GetSysClockFreq+0xa0>)
 8001a9a:	613b      	str	r3, [r7, #16]
 8001a9c:	e02c      	b.n	8001af8 <HAL_RCC_GetSysClockFreq+0x90>
 8001a9e:	68fb      	ldr	r3, [r7, #12]
 8001aa0:	0c9b      	lsrs	r3, r3, #18
 8001aa2:	220f      	movs	r2, #15
 8001aa4:	4013      	ands	r3, r2
 8001aa6:	4a19      	ldr	r2, [pc, #100]	@ (8001b0c <HAL_RCC_GetSysClockFreq+0xa4>)
 8001aa8:	5cd3      	ldrb	r3, [r2, r3]
 8001aaa:	607b      	str	r3, [r7, #4]
 8001aac:	4b15      	ldr	r3, [pc, #84]	@ (8001b04 <HAL_RCC_GetSysClockFreq+0x9c>)
 8001aae:	6adb      	ldr	r3, [r3, #44]	@ 0x2c
 8001ab0:	220f      	movs	r2, #15
 8001ab2:	4013      	ands	r3, r2
 8001ab4:	4a16      	ldr	r2, [pc, #88]	@ (8001b10 <HAL_RCC_GetSysClockFreq+0xa8>)
 8001ab6:	5cd3      	ldrb	r3, [r2, r3]
 8001ab8:	60bb      	str	r3, [r7, #8]
 8001aba:	68fa      	ldr	r2, [r7, #12]
 8001abc:	2380      	movs	r3, #128	@ 0x80
 8001abe:	025b      	lsls	r3, r3, #9
 8001ac0:	4013      	ands	r3, r2
 8001ac2:	d009      	beq.n	8001ad8 <HAL_RCC_GetSysClockFreq+0x70>
 8001ac4:	68b9      	ldr	r1, [r7, #8]
 8001ac6:	4810      	ldr	r0, [pc, #64]	@ (8001b08 <HAL_RCC_GetSysClockFreq+0xa0>)
 8001ac8:	f7fe fb1e 	bl	8000108 <__udivsi3>
 8001acc:	0003      	movs	r3, r0
 8001ace:	001a      	movs	r2, r3
 8001ad0:	687b      	ldr	r3, [r7, #4]
 8001ad2:	4353      	muls	r3, r2
 8001ad4:	617b      	str	r3, [r7, #20]
 8001ad6:	e009      	b.n	8001aec <HAL_RCC_GetSysClockFreq+0x84>
 8001ad8:	6879      	ldr	r1, [r7, #4]
 8001ada:	000a      	movs	r2, r1
 8001adc:	0152      	lsls	r2, r2, #5
 8001ade:	1a52      	subs	r2, r2, r1
 8001ae0:	0193      	lsls	r3, r2, #6
 8001ae2:	1a9b      	subs	r3, r3, r2
 8001ae4:	00db      	lsls	r3, r3, #3
 8001ae6:	185b      	adds	r3, r3, r1
 8001ae8:	021b      	lsls	r3, r3, #8
 8001aea:	617b      	str	r3, [r7, #20]
 8001aec:	697b      	ldr	r3, [r7, #20]
 8001aee:	613b      	str	r3, [r7, #16]
 8001af0:	e002      	b.n	8001af8 <HAL_RCC_GetSysClockFreq+0x90>
 8001af2:	4b05      	ldr	r3, [pc, #20]	@ (8001b08 <HAL_RCC_GetSysClockFreq+0xa0>)
 8001af4:	613b      	str	r3, [r7, #16]
 8001af6:	46c0      	nop			@ (mov r8, r8)
 8001af8:	693b      	ldr	r3, [r7, #16]
 8001afa:	0018      	movs	r0, r3
 8001afc:	46bd      	mov	sp, r7
 8001afe:	b006      	add	sp, #24
 8001b00:	bd80      	pop	{r7, pc}
 8001b02:	46c0      	nop			@ (mov r8, r8)
 8001b04:	40021000 	.word	0x40021000
 8001b08:	007a1200 	.word	0x007a1200
 8001b0c:	08003138 	.word	0x08003138
 8001b10:	08003148 	.word	0x08003148

08001b14 <HAL_RCC_GetHCLKFreq>:
 8001b14:	b580      	push	{r7, lr}
 8001b16:	af00      	add	r7, sp, #0
 8001b18:	4b02      	ldr	r3, [pc, #8]	@ (8001b24 <HAL_RCC_GetHCLKFreq+0x10>)
 8001b1a:	681b      	ldr	r3, [r3, #0]
 8001b1c:	0018      	movs	r0, r3
 8001b1e:	46bd      	mov	sp, r7
 8001b20:	bd80      	pop	{r7, pc}
 8001b22:	46c0      	nop			@ (mov r8, r8)
 8001b24:	20000000 	.word	0x20000000

08001b28 <HAL_RCC_GetPCLK1Freq>:
 8001b28:	b580      	push	{r7, lr}
 8001b2a:	af00      	add	r7, sp, #0
 8001b2c:	f7ff fff2 	bl	8001b14 <HAL_RCC_GetHCLKFreq>
 8001b30:	0001      	movs	r1, r0
 8001b32:	4b06      	ldr	r3, [pc, #24]	@ (8001b4c <HAL_RCC_GetPCLK1Freq+0x24>)
 8001b34:	685b      	ldr	r3, [r3, #4]
 8001b36:	0a1b      	lsrs	r3, r3, #8
 8001b38:	2207      	movs	r2, #7
 8001b3a:	4013      	ands	r3, r2
 8001b3c:	4a04      	ldr	r2, [pc, #16]	@ (8001b50 <HAL_RCC_GetPCLK1Freq+0x28>)
 8001b3e:	5cd3      	ldrb	r3, [r2, r3]
 8001b40:	40d9      	lsrs	r1, r3
 8001b42:	000b      	movs	r3, r1
 8001b44:	0018      	movs	r0, r3
 8001b46:	46bd      	mov	sp, r7
 8001b48:	bd80      	pop	{r7, pc}
 8001b4a:	46c0      	nop			@ (mov r8, r8)
 8001b4c:	40021000 	.word	0x40021000
 8001b50:	08003130 	.word	0x08003130

08001b54 <HAL_RCCEx_PeriphCLKConfig>:
 8001b54:	b580      	push	{r7, lr}
 8001b56:	b086      	sub	sp, #24
 8001b58:	af00      	add	r7, sp, #0
 8001b5a:	6078      	str	r0, [r7, #4]
 8001b5c:	2300      	movs	r3, #0
 8001b5e:	613b      	str	r3, [r7, #16]
 8001b60:	2300      	movs	r3, #0
 8001b62:	60fb      	str	r3, [r7, #12]
 8001b64:	687b      	ldr	r3, [r7, #4]
 8001b66:	681a      	ldr	r2, [r3, #0]
 8001b68:	2380      	movs	r3, #128	@ 0x80
 8001b6a:	025b      	lsls	r3, r3, #9
 8001b6c:	4013      	ands	r3, r2
 8001b6e:	d100      	bne.n	8001b72 <HAL_RCCEx_PeriphCLKConfig+0x1e>
 8001b70:	e08e      	b.n	8001c90 <HAL_RCCEx_PeriphCLKConfig+0x13c>
 8001b72:	2017      	movs	r0, #23
 8001b74:	183b      	adds	r3, r7, r0
 8001b76:	2200      	movs	r2, #0
 8001b78:	701a      	strb	r2, [r3, #0]
 8001b7a:	4b5f      	ldr	r3, [pc, #380]	@ (8001cf8 <HAL_RCCEx_PeriphCLKConfig+0x1a4>)
 8001b7c:	69da      	ldr	r2, [r3, #28]
 8001b7e:	2380      	movs	r3, #128	@ 0x80
 8001b80:	055b      	lsls	r3, r3, #21
 8001b82:	4013      	ands	r3, r2
 8001b84:	d110      	bne.n	8001ba8 <HAL_RCCEx_PeriphCLKConfig+0x54>
 8001b86:	4b5c      	ldr	r3, [pc, #368]	@ (8001cf8 <HAL_RCCEx_PeriphCLKConfig+0x1a4>)
 8001b88:	69da      	ldr	r2, [r3, #28]
 8001b8a:	4b5b      	ldr	r3, [pc, #364]	@ (8001cf8 <HAL_RCCEx_PeriphCLKConfig+0x1a4>)
 8001b8c:	2180      	movs	r1, #128	@ 0x80
 8001b8e:	0549      	lsls	r1, r1, #21
 8001b90:	430a      	orrs	r2, r1
 8001b92:	61da      	str	r2, [r3, #28]
 8001b94:	4b58      	ldr	r3, [pc, #352]	@ (8001cf8 <HAL_RCCEx_PeriphCLKConfig+0x1a4>)
 8001b96:	69da      	ldr	r2, [r3, #28]
 8001b98:	2380      	movs	r3, #128	@ 0x80
 8001b9a:	055b      	lsls	r3, r3, #21
 8001b9c:	4013      	ands	r3, r2
 8001b9e:	60bb      	str	r3, [r7, #8]
 8001ba0:	68bb      	ldr	r3, [r7, #8]
 8001ba2:	183b      	adds	r3, r7, r0
 8001ba4:	2201      	movs	r2, #1
 8001ba6:	701a      	strb	r2, [r3, #0]
 8001ba8:	4b54      	ldr	r3, [pc, #336]	@ (8001cfc <HAL_RCCEx_PeriphCLKConfig+0x1a8>)
 8001baa:	681a      	ldr	r2, [r3, #0]
 8001bac:	2380      	movs	r3, #128	@ 0x80
 8001bae:	005b      	lsls	r3, r3, #1
 8001bb0:	4013      	ands	r3, r2
 8001bb2:	d11a      	bne.n	8001bea <HAL_RCCEx_PeriphCLKConfig+0x96>
 8001bb4:	4b51      	ldr	r3, [pc, #324]	@ (8001cfc <HAL_RCCEx_PeriphCLKConfig+0x1a8>)
 8001bb6:	681a      	ldr	r2, [r3, #0]
 8001bb8:	4b50      	ldr	r3, [pc, #320]	@ (8001cfc <HAL_RCCEx_PeriphCLKConfig+0x1a8>)
 8001bba:	2180      	movs	r1, #128	@ 0x80
 8001bbc:	0049      	lsls	r1, r1, #1
 8001bbe:	430a      	orrs	r2, r1
 8001bc0:	601a      	str	r2, [r3, #0]
 8001bc2:	f7fe fedd 	bl	8000980 <HAL_GetTick>
 8001bc6:	0003      	movs	r3, r0
 8001bc8:	613b      	str	r3, [r7, #16]
 8001bca:	e008      	b.n	8001bde <HAL_RCCEx_PeriphCLKConfig+0x8a>
 8001bcc:	f7fe fed8 	bl	8000980 <HAL_GetTick>
 8001bd0:	0002      	movs	r2, r0
 8001bd2:	693b      	ldr	r3, [r7, #16]
 8001bd4:	1ad3      	subs	r3, r2, r3
 8001bd6:	2b64      	cmp	r3, #100	@ 0x64
 8001bd8:	d901      	bls.n	8001bde <HAL_RCCEx_PeriphCLKConfig+0x8a>
 8001bda:	2303      	movs	r3, #3
 8001bdc:	e087      	b.n	8001cee <HAL_RCCEx_PeriphCLKConfig+0x19a>
 8001bde:	4b47      	ldr	r3, [pc, #284]	@ (8001cfc <HAL_RCCEx_PeriphCLKConfig+0x1a8>)
 8001be0:	681a      	ldr	r2, [r3, #0]
 8001be2:	2380      	movs	r3, #128	@ 0x80
 8001be4:	005b      	lsls	r3, r3, #1
 8001be6:	4013      	ands	r3, r2
 8001be8:	d0f0      	beq.n	8001bcc <HAL_RCCEx_PeriphCLKConfig+0x78>
 8001bea:	4b43      	ldr	r3, [pc, #268]	@ (8001cf8 <HAL_RCCEx_PeriphCLKConfig+0x1a4>)
 8001bec:	6a1a      	ldr	r2, [r3, #32]
 8001bee:	23c0      	movs	r3, #192	@ 0xc0
 8001bf0:	009b      	lsls	r3, r3, #2
 8001bf2:	4013      	ands	r3, r2
 8001bf4:	60fb      	str	r3, [r7, #12]
 8001bf6:	68fb      	ldr	r3, [r7, #12]
 8001bf8:	2b00      	cmp	r3, #0
 8001bfa:	d034      	beq.n	8001c66 <HAL_RCCEx_PeriphCLKConfig+0x112>
 8001bfc:	687b      	ldr	r3, [r7, #4]
 8001bfe:	685a      	ldr	r2, [r3, #4]
 8001c00:	23c0      	movs	r3, #192	@ 0xc0
 8001c02:	009b      	lsls	r3, r3, #2
 8001c04:	4013      	ands	r3, r2
 8001c06:	68fa      	ldr	r2, [r7, #12]
 8001c08:	429a      	cmp	r2, r3
 8001c0a:	d02c      	beq.n	8001c66 <HAL_RCCEx_PeriphCLKConfig+0x112>
 8001c0c:	4b3a      	ldr	r3, [pc, #232]	@ (8001cf8 <HAL_RCCEx_PeriphCLKConfig+0x1a4>)
 8001c0e:	6a1b      	ldr	r3, [r3, #32]
 8001c10:	4a3b      	ldr	r2, [pc, #236]	@ (8001d00 <HAL_RCCEx_PeriphCLKConfig+0x1ac>)
 8001c12:	4013      	ands	r3, r2
 8001c14:	60fb      	str	r3, [r7, #12]
 8001c16:	4b38      	ldr	r3, [pc, #224]	@ (8001cf8 <HAL_RCCEx_PeriphCLKConfig+0x1a4>)
 8001c18:	6a1a      	ldr	r2, [r3, #32]
 8001c1a:	4b37      	ldr	r3, [pc, #220]	@ (8001cf8 <HAL_RCCEx_PeriphCLKConfig+0x1a4>)
 8001c1c:	2180      	movs	r1, #128	@ 0x80
 8001c1e:	0249      	lsls	r1, r1, #9
 8001c20:	430a      	orrs	r2, r1
 8001c22:	621a      	str	r2, [r3, #32]
 8001c24:	4b34      	ldr	r3, [pc, #208]	@ (8001cf8 <HAL_RCCEx_PeriphCLKConfig+0x1a4>)
 8001c26:	6a1a      	ldr	r2, [r3, #32]
 8001c28:	4b33      	ldr	r3, [pc, #204]	@ (8001cf8 <HAL_RCCEx_PeriphCLKConfig+0x1a4>)
 8001c2a:	4936      	ldr	r1, [pc, #216]	@ (8001d04 <HAL_RCCEx_PeriphCLKConfig+0x1b0>)
 8001c2c:	400a      	ands	r2, r1
 8001c2e:	621a      	str	r2, [r3, #32]
 8001c30:	4b31      	ldr	r3, [pc, #196]	@ (8001cf8 <HAL_RCCEx_PeriphCLKConfig+0x1a4>)
 8001c32:	68fa      	ldr	r2, [r7, #12]
 8001c34:	621a      	str	r2, [r3, #32]
 8001c36:	68fb      	ldr	r3, [r7, #12]
 8001c38:	2201      	movs	r2, #1
 8001c3a:	4013      	ands	r3, r2
 8001c3c:	d013      	beq.n	8001c66 <HAL_RCCEx_PeriphCLKConfig+0x112>
 8001c3e:	f7fe fe9f 	bl	8000980 <HAL_GetTick>
 8001c42:	0003      	movs	r3, r0
 8001c44:	613b      	str	r3, [r7, #16]
 8001c46:	e009      	b.n	8001c5c <HAL_RCCEx_PeriphCLKConfig+0x108>
 8001c48:	f7fe fe9a 	bl	8000980 <HAL_GetTick>
 8001c4c:	0002      	movs	r2, r0
 8001c4e:	693b      	ldr	r3, [r7, #16]
 8001c50:	1ad3      	subs	r3, r2, r3
 8001c52:	4a2d      	ldr	r2, [pc, #180]	@ (8001d08 <HAL_RCCEx_PeriphCLKConfig+0x1b4>)
 8001c54:	4293      	cmp	r3, r2
 8001c56:	d901      	bls.n	8001c5c <HAL_RCCEx_PeriphCLKConfig+0x108>
 8001c58:	2303      	movs	r3, #3
 8001c5a:	e048      	b.n	8001cee <HAL_RCCEx_PeriphCLKConfig+0x19a>
 8001c5c:	4b26      	ldr	r3, [pc, #152]	@ (8001cf8 <HAL_RCCEx_PeriphCLKConfig+0x1a4>)
 8001c5e:	6a1b      	ldr	r3, [r3, #32]
 8001c60:	2202      	movs	r2, #2
 8001c62:	4013      	ands	r3, r2
 8001c64:	d0f0      	beq.n	8001c48 <HAL_RCCEx_PeriphCLKConfig+0xf4>
 8001c66:	4b24      	ldr	r3, [pc, #144]	@ (8001cf8 <HAL_RCCEx_PeriphCLKConfig+0x1a4>)
 8001c68:	6a1b      	ldr	r3, [r3, #32]
 8001c6a:	4a25      	ldr	r2, [pc, #148]	@ (8001d00 <HAL_RCCEx_PeriphCLKConfig+0x1ac>)
 8001c6c:	4013      	ands	r3, r2
 8001c6e:	0019      	movs	r1, r3
 8001c70:	687b      	ldr	r3, [r7, #4]
 8001c72:	685a      	ldr	r2, [r3, #4]
 8001c74:	4b20      	ldr	r3, [pc, #128]	@ (8001cf8 <HAL_RCCEx_PeriphCLKConfig+0x1a4>)
 8001c76:	430a      	orrs	r2, r1
 8001c78:	621a      	str	r2, [r3, #32]
 8001c7a:	2317      	movs	r3, #23
 8001c7c:	18fb      	adds	r3, r7, r3
 8001c7e:	781b      	ldrb	r3, [r3, #0]
 8001c80:	2b01      	cmp	r3, #1
 8001c82:	d105      	bne.n	8001c90 <HAL_RCCEx_PeriphCLKConfig+0x13c>
 8001c84:	4b1c      	ldr	r3, [pc, #112]	@ (8001cf8 <HAL_RCCEx_PeriphCLKConfig+0x1a4>)
 8001c86:	69da      	ldr	r2, [r3, #28]
 8001c88:	4b1b      	ldr	r3, [pc, #108]	@ (8001cf8 <HAL_RCCEx_PeriphCLKConfig+0x1a4>)
 8001c8a:	4920      	ldr	r1, [pc, #128]	@ (8001d0c <HAL_RCCEx_PeriphCLKConfig+0x1b8>)
 8001c8c:	400a      	ands	r2, r1
 8001c8e:	61da      	str	r2, [r3, #28]
 8001c90:	687b      	ldr	r3, [r7, #4]
 8001c92:	681b      	ldr	r3, [r3, #0]
 8001c94:	2201      	movs	r2, #1
 8001c96:	4013      	ands	r3, r2
 8001c98:	d009      	beq.n	8001cae <HAL_RCCEx_PeriphCLKConfig+0x15a>
 8001c9a:	4b17      	ldr	r3, [pc, #92]	@ (8001cf8 <HAL_RCCEx_PeriphCLKConfig+0x1a4>)
 8001c9c:	6b1b      	ldr	r3, [r3, #48]	@ 0x30
 8001c9e:	2203      	movs	r2, #3
 8001ca0:	4393      	bics	r3, r2
 8001ca2:	0019      	movs	r1, r3
 8001ca4:	687b      	ldr	r3, [r7, #4]
 8001ca6:	689a      	ldr	r2, [r3, #8]
 8001ca8:	4b13      	ldr	r3, [pc, #76]	@ (8001cf8 <HAL_RCCEx_PeriphCLKConfig+0x1a4>)
 8001caa:	430a      	orrs	r2, r1
 8001cac:	631a      	str	r2, [r3, #48]	@ 0x30
 8001cae:	687b      	ldr	r3, [r7, #4]
 8001cb0:	681b      	ldr	r3, [r3, #0]
 8001cb2:	2220      	movs	r2, #32
 8001cb4:	4013      	ands	r3, r2
 8001cb6:	d009      	beq.n	8001ccc <HAL_RCCEx_PeriphCLKConfig+0x178>
 8001cb8:	4b0f      	ldr	r3, [pc, #60]	@ (8001cf8 <HAL_RCCEx_PeriphCLKConfig+0x1a4>)
 8001cba:	6b1b      	ldr	r3, [r3, #48]	@ 0x30
 8001cbc:	2210      	movs	r2, #16
 8001cbe:	4393      	bics	r3, r2
 8001cc0:	0019      	movs	r1, r3
 8001cc2:	687b      	ldr	r3, [r7, #4]
 8001cc4:	68da      	ldr	r2, [r3, #12]
 8001cc6:	4b0c      	ldr	r3, [pc, #48]	@ (8001cf8 <HAL_RCCEx_PeriphCLKConfig+0x1a4>)
 8001cc8:	430a      	orrs	r2, r1
 8001cca:	631a      	str	r2, [r3, #48]	@ 0x30
 8001ccc:	687b      	ldr	r3, [r7, #4]
 8001cce:	681a      	ldr	r2, [r3, #0]
 8001cd0:	2380      	movs	r3, #128	@ 0x80
 8001cd2:	00db      	lsls	r3, r3, #3
 8001cd4:	4013      	ands	r3, r2
 8001cd6:	d009      	beq.n	8001cec <HAL_RCCEx_PeriphCLKConfig+0x198>
 8001cd8:	4b07      	ldr	r3, [pc, #28]	@ (8001cf8 <HAL_RCCEx_PeriphCLKConfig+0x1a4>)
 8001cda:	6b1b      	ldr	r3, [r3, #48]	@ 0x30
 8001cdc:	2240      	movs	r2, #64	@ 0x40
 8001cde:	4393      	bics	r3, r2
 8001ce0:	0019      	movs	r1, r3
 8001ce2:	687b      	ldr	r3, [r7, #4]
 8001ce4:	691a      	ldr	r2, [r3, #16]
 8001ce6:	4b04      	ldr	r3, [pc, #16]	@ (8001cf8 <HAL_RCCEx_PeriphCLKConfig+0x1a4>)
 8001ce8:	430a      	orrs	r2, r1
 8001cea:	631a      	str	r2, [r3, #48]	@ 0x30
 8001cec:	2300      	movs	r3, #0
 8001cee:	0018      	movs	r0, r3
 8001cf0:	46bd      	mov	sp, r7
 8001cf2:	b006      	add	sp, #24
 8001cf4:	bd80      	pop	{r7, pc}
 8001cf6:	46c0      	nop			@ (mov r8, r8)
 8001cf8:	40021000 	.word	0x40021000
 8001cfc:	40007000 	.word	0x40007000
 8001d00:	fffffcff 	.word	0xfffffcff
 8001d04:	fffeffff 	.word	0xfffeffff
 8001d08:	00001388 	.word	0x00001388
 8001d0c:	efffffff 	.word	0xefffffff

08001d10 <HAL_UART_Init>:
 8001d10:	b580      	push	{r7, lr}
 8001d12:	b082      	sub	sp, #8
 8001d14:	af00      	add	r7, sp, #0
 8001d16:	6078      	str	r0, [r7, #4]
 8001d18:	687b      	ldr	r3, [r7, #4]
 8001d1a:	2b00      	cmp	r3, #0
 8001d1c:	d101      	bne.n	8001d22 <HAL_UART_Init+0x12>
 8001d1e:	2301      	movs	r3, #1
 8001d20:	e044      	b.n	8001dac <HAL_UART_Init+0x9c>
 8001d22:	687b      	ldr	r3, [r7, #4]
 8001d24:	6fdb      	ldr	r3, [r3, #124]	@ 0x7c
 8001d26:	2b00      	cmp	r3, #0
 8001d28:	d107      	bne.n	8001d3a <HAL_UART_Init+0x2a>
 8001d2a:	687b      	ldr	r3, [r7, #4]
 8001d2c:	2278      	movs	r2, #120	@ 0x78
 8001d2e:	2100      	movs	r1, #0
 8001d30:	5499      	strb	r1, [r3, r2]
 8001d32:	687b      	ldr	r3, [r7, #4]
 8001d34:	0018      	movs	r0, r3
 8001d36:	f7fe fce7 	bl	8000708 <HAL_UART_MspInit>
 8001d3a:	687b      	ldr	r3, [r7, #4]
 8001d3c:	2224      	movs	r2, #36	@ 0x24
 8001d3e:	67da      	str	r2, [r3, #124]	@ 0x7c
 8001d40:	687b      	ldr	r3, [r7, #4]
 8001d42:	681b      	ldr	r3, [r3, #0]
 8001d44:	681a      	ldr	r2, [r3, #0]
 8001d46:	687b      	ldr	r3, [r7, #4]
 8001d48:	681b      	ldr	r3, [r3, #0]
 8001d4a:	2101      	movs	r1, #1
 8001d4c:	438a      	bics	r2, r1
 8001d4e:	601a      	str	r2, [r3, #0]
 8001d50:	687b      	ldr	r3, [r7, #4]
 8001d52:	6a5b      	ldr	r3, [r3, #36]	@ 0x24
 8001d54:	2b00      	cmp	r3, #0
 8001d56:	d003      	beq.n	8001d60 <HAL_UART_Init+0x50>
 8001d58:	687b      	ldr	r3, [r7, #4]
 8001d5a:	0018      	movs	r0, r3
 8001d5c:	f000 fd66 	bl	800282c <UART_AdvFeatureConfig>
 8001d60:	687b      	ldr	r3, [r7, #4]
 8001d62:	0018      	movs	r0, r3
 8001d64:	f000 fc22 	bl	80025ac <UART_SetConfig>
 8001d68:	0003      	movs	r3, r0
 8001d6a:	2b01      	cmp	r3, #1
 8001d6c:	d101      	bne.n	8001d72 <HAL_UART_Init+0x62>
 8001d6e:	2301      	movs	r3, #1
 8001d70:	e01c      	b.n	8001dac <HAL_UART_Init+0x9c>
 8001d72:	687b      	ldr	r3, [r7, #4]
 8001d74:	681b      	ldr	r3, [r3, #0]
 8001d76:	685a      	ldr	r2, [r3, #4]
 8001d78:	687b      	ldr	r3, [r7, #4]
 8001d7a:	681b      	ldr	r3, [r3, #0]
 8001d7c:	490d      	ldr	r1, [pc, #52]	@ (8001db4 <HAL_UART_Init+0xa4>)
 8001d7e:	400a      	ands	r2, r1
 8001d80:	605a      	str	r2, [r3, #4]
 8001d82:	687b      	ldr	r3, [r7, #4]
 8001d84:	681b      	ldr	r3, [r3, #0]
 8001d86:	689a      	ldr	r2, [r3, #8]
 8001d88:	687b      	ldr	r3, [r7, #4]
 8001d8a:	681b      	ldr	r3, [r3, #0]
 8001d8c:	212a      	movs	r1, #42	@ 0x2a
 8001d8e:	438a      	bics	r2, r1
 8001d90:	609a      	str	r2, [r3, #8]
 8001d92:	687b      	ldr	r3, [r7, #4]
 8001d94:	681b      	ldr	r3, [r3, #0]
 8001d96:	681a      	ldr	r2, [r3, #0]
 8001d98:	687b      	ldr	r3, [r7, #4]
 8001d9a:	681b      	ldr	r3, [r3, #0]
 8001d9c:	2101      	movs	r1, #1
 8001d9e:	430a      	orrs	r2, r1
 8001da0:	601a      	str	r2, [r3, #0]
 8001da2:	687b      	ldr	r3, [r7, #4]
 8001da4:	0018      	movs	r0, r3
 8001da6:	f000 fdf5 	bl	8002994 <UART_CheckIdleState>
 8001daa:	0003      	movs	r3, r0
 8001dac:	0018      	movs	r0, r3
 8001dae:	46bd      	mov	sp, r7
 8001db0:	b002      	add	sp, #8
 8001db2:	bd80      	pop	{r7, pc}
 8001db4:	ffffb7ff 	.word	0xffffb7ff

08001db8 <HAL_UART_Transmit>:
 8001db8:	b580      	push	{r7, lr}
 8001dba:	b08a      	sub	sp, #40	@ 0x28
 8001dbc:	af02      	add	r7, sp, #8
 8001dbe:	60f8      	str	r0, [r7, #12]
 8001dc0:	60b9      	str	r1, [r7, #8]
 8001dc2:	603b      	str	r3, [r7, #0]
 8001dc4:	1dbb      	adds	r3, r7, #6
 8001dc6:	801a      	strh	r2, [r3, #0]
 8001dc8:	68fb      	ldr	r3, [r7, #12]
 8001dca:	6fdb      	ldr	r3, [r3, #124]	@ 0x7c
 8001dcc:	2b20      	cmp	r3, #32
 8001dce:	d000      	beq.n	8001dd2 <HAL_UART_Transmit+0x1a>
 8001dd0:	e08c      	b.n	8001eec <HAL_UART_Transmit+0x134>
 8001dd2:	68bb      	ldr	r3, [r7, #8]
 8001dd4:	2b00      	cmp	r3, #0
 8001dd6:	d003      	beq.n	8001de0 <HAL_UART_Transmit+0x28>
 8001dd8:	1dbb      	adds	r3, r7, #6
 8001dda:	881b      	ldrh	r3, [r3, #0]
 8001ddc:	2b00      	cmp	r3, #0
 8001dde:	d101      	bne.n	8001de4 <HAL_UART_Transmit+0x2c>
 8001de0:	2301      	movs	r3, #1
 8001de2:	e084      	b.n	8001eee <HAL_UART_Transmit+0x136>
 8001de4:	68fb      	ldr	r3, [r7, #12]
 8001de6:	689a      	ldr	r2, [r3, #8]
 8001de8:	2380      	movs	r3, #128	@ 0x80
 8001dea:	015b      	lsls	r3, r3, #5
 8001dec:	429a      	cmp	r2, r3
 8001dee:	d109      	bne.n	8001e04 <HAL_UART_Transmit+0x4c>
 8001df0:	68fb      	ldr	r3, [r7, #12]
 8001df2:	691b      	ldr	r3, [r3, #16]
 8001df4:	2b00      	cmp	r3, #0
 8001df6:	d105      	bne.n	8001e04 <HAL_UART_Transmit+0x4c>
 8001df8:	68bb      	ldr	r3, [r7, #8]
 8001dfa:	2201      	movs	r2, #1
 8001dfc:	4013      	ands	r3, r2
 8001dfe:	d001      	beq.n	8001e04 <HAL_UART_Transmit+0x4c>
 8001e00:	2301      	movs	r3, #1
 8001e02:	e074      	b.n	8001eee <HAL_UART_Transmit+0x136>
 8001e04:	68fb      	ldr	r3, [r7, #12]
 8001e06:	2284      	movs	r2, #132	@ 0x84
 8001e08:	2100      	movs	r1, #0
 8001e0a:	5099      	str	r1, [r3, r2]
 8001e0c:	68fb      	ldr	r3, [r7, #12]
 8001e0e:	2221      	movs	r2, #33	@ 0x21
 8001e10:	67da      	str	r2, [r3, #124]	@ 0x7c
 8001e12:	f7fe fdb5 	bl	8000980 <HAL_GetTick>
 8001e16:	0003      	movs	r3, r0
 8001e18:	617b      	str	r3, [r7, #20]
 8001e1a:	68fb      	ldr	r3, [r7, #12]
 8001e1c:	1dba      	adds	r2, r7, #6
 8001e1e:	2150      	movs	r1, #80	@ 0x50
 8001e20:	8812      	ldrh	r2, [r2, #0]
 8001e22:	525a      	strh	r2, [r3, r1]
 8001e24:	68fb      	ldr	r3, [r7, #12]
 8001e26:	1dba      	adds	r2, r7, #6
 8001e28:	2152      	movs	r1, #82	@ 0x52
 8001e2a:	8812      	ldrh	r2, [r2, #0]
 8001e2c:	525a      	strh	r2, [r3, r1]
 8001e2e:	68fb      	ldr	r3, [r7, #12]
 8001e30:	689a      	ldr	r2, [r3, #8]
 8001e32:	2380      	movs	r3, #128	@ 0x80
 8001e34:	015b      	lsls	r3, r3, #5
 8001e36:	429a      	cmp	r2, r3
 8001e38:	d108      	bne.n	8001e4c <HAL_UART_Transmit+0x94>
 8001e3a:	68fb      	ldr	r3, [r7, #12]
 8001e3c:	691b      	ldr	r3, [r3, #16]
 8001e3e:	2b00      	cmp	r3, #0
 8001e40:	d104      	bne.n	8001e4c <HAL_UART_Transmit+0x94>
 8001e42:	2300      	movs	r3, #0
 8001e44:	61fb      	str	r3, [r7, #28]
 8001e46:	68bb      	ldr	r3, [r7, #8]
 8001e48:	61bb      	str	r3, [r7, #24]
 8001e4a:	e003      	b.n	8001e54 <HAL_UART_Transmit+0x9c>
 8001e4c:	68bb      	ldr	r3, [r7, #8]
 8001e4e:	61fb      	str	r3, [r7, #28]
 8001e50:	2300      	movs	r3, #0
 8001e52:	61bb      	str	r3, [r7, #24]
 8001e54:	e02f      	b.n	8001eb6 <HAL_UART_Transmit+0xfe>
 8001e56:	697a      	ldr	r2, [r7, #20]
 8001e58:	68f8      	ldr	r0, [r7, #12]
 8001e5a:	683b      	ldr	r3, [r7, #0]
 8001e5c:	9300      	str	r3, [sp, #0]
 8001e5e:	0013      	movs	r3, r2
 8001e60:	2200      	movs	r2, #0
 8001e62:	2180      	movs	r1, #128	@ 0x80
 8001e64:	f000 fe3e 	bl	8002ae4 <UART_WaitOnFlagUntilTimeout>
 8001e68:	1e03      	subs	r3, r0, #0
 8001e6a:	d004      	beq.n	8001e76 <HAL_UART_Transmit+0xbe>
 8001e6c:	68fb      	ldr	r3, [r7, #12]
 8001e6e:	2220      	movs	r2, #32
 8001e70:	67da      	str	r2, [r3, #124]	@ 0x7c
 8001e72:	2303      	movs	r3, #3
 8001e74:	e03b      	b.n	8001eee <HAL_UART_Transmit+0x136>
 8001e76:	69fb      	ldr	r3, [r7, #28]
 8001e78:	2b00      	cmp	r3, #0
 8001e7a:	d10b      	bne.n	8001e94 <HAL_UART_Transmit+0xdc>
 8001e7c:	69bb      	ldr	r3, [r7, #24]
 8001e7e:	881a      	ldrh	r2, [r3, #0]
 8001e80:	68fb      	ldr	r3, [r7, #12]
 8001e82:	681b      	ldr	r3, [r3, #0]
 8001e84:	05d2      	lsls	r2, r2, #23
 8001e86:	0dd2      	lsrs	r2, r2, #23
 8001e88:	b292      	uxth	r2, r2
 8001e8a:	851a      	strh	r2, [r3, #40]	@ 0x28
 8001e8c:	69bb      	ldr	r3, [r7, #24]
 8001e8e:	3302      	adds	r3, #2
 8001e90:	61bb      	str	r3, [r7, #24]
 8001e92:	e007      	b.n	8001ea4 <HAL_UART_Transmit+0xec>
 8001e94:	69fb      	ldr	r3, [r7, #28]
 8001e96:	781a      	ldrb	r2, [r3, #0]
 8001e98:	68fb      	ldr	r3, [r7, #12]
 8001e9a:	681b      	ldr	r3, [r3, #0]
 8001e9c:	851a      	strh	r2, [r3, #40]	@ 0x28
 8001e9e:	69fb      	ldr	r3, [r7, #28]
 8001ea0:	3301      	adds	r3, #1
 8001ea2:	61fb      	str	r3, [r7, #28]
 8001ea4:	68fb      	ldr	r3, [r7, #12]
 8001ea6:	2252      	movs	r2, #82	@ 0x52
 8001ea8:	5a9b      	ldrh	r3, [r3, r2]
 8001eaa:	b29b      	uxth	r3, r3
 8001eac:	3b01      	subs	r3, #1
 8001eae:	b299      	uxth	r1, r3
 8001eb0:	68fb      	ldr	r3, [r7, #12]
 8001eb2:	2252      	movs	r2, #82	@ 0x52
 8001eb4:	5299      	strh	r1, [r3, r2]
 8001eb6:	68fb      	ldr	r3, [r7, #12]
 8001eb8:	2252      	movs	r2, #82	@ 0x52
 8001eba:	5a9b      	ldrh	r3, [r3, r2]
 8001ebc:	b29b      	uxth	r3, r3
 8001ebe:	2b00      	cmp	r3, #0
 8001ec0:	d1c9      	bne.n	8001e56 <HAL_UART_Transmit+0x9e>
 8001ec2:	697a      	ldr	r2, [r7, #20]
 8001ec4:	68f8      	ldr	r0, [r7, #12]
 8001ec6:	683b      	ldr	r3, [r7, #0]
 8001ec8:	9300      	str	r3, [sp, #0]
 8001eca:	0013      	movs	r3, r2
 8001ecc:	2200      	movs	r2, #0
 8001ece:	2140      	movs	r1, #64	@ 0x40
 8001ed0:	f000 fe08 	bl	8002ae4 <UART_WaitOnFlagUntilTimeout>
 8001ed4:	1e03      	subs	r3, r0, #0
 8001ed6:	d004      	beq.n	8001ee2 <HAL_UART_Transmit+0x12a>
 8001ed8:	68fb      	ldr	r3, [r7, #12]
 8001eda:	2220      	movs	r2, #32
 8001edc:	67da      	str	r2, [r3, #124]	@ 0x7c
 8001ede:	2303      	movs	r3, #3
 8001ee0:	e005      	b.n	8001eee <HAL_UART_Transmit+0x136>
 8001ee2:	68fb      	ldr	r3, [r7, #12]
 8001ee4:	2220      	movs	r2, #32
 8001ee6:	67da      	str	r2, [r3, #124]	@ 0x7c
 8001ee8:	2300      	movs	r3, #0
 8001eea:	e000      	b.n	8001eee <HAL_UART_Transmit+0x136>
 8001eec:	2302      	movs	r3, #2
 8001eee:	0018      	movs	r0, r3
 8001ef0:	46bd      	mov	sp, r7
 8001ef2:	b008      	add	sp, #32
 8001ef4:	bd80      	pop	{r7, pc}

08001ef6 <HAL_UART_Receive_DMA>:
 8001ef6:	b580      	push	{r7, lr}
 8001ef8:	b088      	sub	sp, #32
 8001efa:	af00      	add	r7, sp, #0
 8001efc:	60f8      	str	r0, [r7, #12]
 8001efe:	60b9      	str	r1, [r7, #8]
 8001f00:	1dbb      	adds	r3, r7, #6
 8001f02:	801a      	strh	r2, [r3, #0]
 8001f04:	68fb      	ldr	r3, [r7, #12]
 8001f06:	2280      	movs	r2, #128	@ 0x80
 8001f08:	589b      	ldr	r3, [r3, r2]
 8001f0a:	2b20      	cmp	r3, #32
 8001f0c:	d145      	bne.n	8001f9a <HAL_UART_Receive_DMA+0xa4>
 8001f0e:	68bb      	ldr	r3, [r7, #8]
 8001f10:	2b00      	cmp	r3, #0
 8001f12:	d003      	beq.n	8001f1c <HAL_UART_Receive_DMA+0x26>
 8001f14:	1dbb      	adds	r3, r7, #6
 8001f16:	881b      	ldrh	r3, [r3, #0]
 8001f18:	2b00      	cmp	r3, #0
 8001f1a:	d101      	bne.n	8001f20 <HAL_UART_Receive_DMA+0x2a>
 8001f1c:	2301      	movs	r3, #1
 8001f1e:	e03d      	b.n	8001f9c <HAL_UART_Receive_DMA+0xa6>
 8001f20:	68fb      	ldr	r3, [r7, #12]
 8001f22:	689a      	ldr	r2, [r3, #8]
 8001f24:	2380      	movs	r3, #128	@ 0x80
 8001f26:	015b      	lsls	r3, r3, #5
 8001f28:	429a      	cmp	r2, r3
 8001f2a:	d109      	bne.n	8001f40 <HAL_UART_Receive_DMA+0x4a>
 8001f2c:	68fb      	ldr	r3, [r7, #12]
 8001f2e:	691b      	ldr	r3, [r3, #16]
 8001f30:	2b00      	cmp	r3, #0
 8001f32:	d105      	bne.n	8001f40 <HAL_UART_Receive_DMA+0x4a>
 8001f34:	68bb      	ldr	r3, [r7, #8]
 8001f36:	2201      	movs	r2, #1
 8001f38:	4013      	ands	r3, r2
 8001f3a:	d001      	beq.n	8001f40 <HAL_UART_Receive_DMA+0x4a>
 8001f3c:	2301      	movs	r3, #1
 8001f3e:	e02d      	b.n	8001f9c <HAL_UART_Receive_DMA+0xa6>
 8001f40:	68fb      	ldr	r3, [r7, #12]
 8001f42:	2200      	movs	r2, #0
 8001f44:	661a      	str	r2, [r3, #96]	@ 0x60
 8001f46:	68fb      	ldr	r3, [r7, #12]
 8001f48:	681b      	ldr	r3, [r3, #0]
 8001f4a:	685a      	ldr	r2, [r3, #4]
 8001f4c:	2380      	movs	r3, #128	@ 0x80
 8001f4e:	041b      	lsls	r3, r3, #16
 8001f50:	4013      	ands	r3, r2
 8001f52:	d019      	beq.n	8001f88 <HAL_UART_Receive_DMA+0x92>
 8001f54:	f3ef 8310 	mrs	r3, PRIMASK
 8001f58:	613b      	str	r3, [r7, #16]
 8001f5a:	693b      	ldr	r3, [r7, #16]
 8001f5c:	61fb      	str	r3, [r7, #28]
 8001f5e:	2301      	movs	r3, #1
 8001f60:	617b      	str	r3, [r7, #20]
 8001f62:	697b      	ldr	r3, [r7, #20]
 8001f64:	f383 8810 	msr	PRIMASK, r3
 8001f68:	46c0      	nop			@ (mov r8, r8)
 8001f6a:	68fb      	ldr	r3, [r7, #12]
 8001f6c:	681b      	ldr	r3, [r3, #0]
 8001f6e:	681a      	ldr	r2, [r3, #0]
 8001f70:	68fb      	ldr	r3, [r7, #12]
 8001f72:	681b      	ldr	r3, [r3, #0]
 8001f74:	2180      	movs	r1, #128	@ 0x80
 8001f76:	04c9      	lsls	r1, r1, #19
 8001f78:	430a      	orrs	r2, r1
 8001f7a:	601a      	str	r2, [r3, #0]
 8001f7c:	69fb      	ldr	r3, [r7, #28]
 8001f7e:	61bb      	str	r3, [r7, #24]
 8001f80:	69bb      	ldr	r3, [r7, #24]
 8001f82:	f383 8810 	msr	PRIMASK, r3
 8001f86:	46c0      	nop			@ (mov r8, r8)
 8001f88:	1dbb      	adds	r3, r7, #6
 8001f8a:	881a      	ldrh	r2, [r3, #0]
 8001f8c:	68b9      	ldr	r1, [r7, #8]
 8001f8e:	68fb      	ldr	r3, [r7, #12]
 8001f90:	0018      	movs	r0, r3
 8001f92:	f000 fe17 	bl	8002bc4 <UART_Start_Receive_DMA>
 8001f96:	0003      	movs	r3, r0
 8001f98:	e000      	b.n	8001f9c <HAL_UART_Receive_DMA+0xa6>
 8001f9a:	2302      	movs	r3, #2
 8001f9c:	0018      	movs	r0, r3
 8001f9e:	46bd      	mov	sp, r7
 8001fa0:	b008      	add	sp, #32
 8001fa2:	bd80      	pop	{r7, pc}

08001fa4 <HAL_UART_IRQHandler>:
 8001fa4:	b590      	push	{r4, r7, lr}
 8001fa6:	b0ab      	sub	sp, #172	@ 0xac
 8001fa8:	af00      	add	r7, sp, #0
 8001faa:	6078      	str	r0, [r7, #4]
 8001fac:	687b      	ldr	r3, [r7, #4]
 8001fae:	681b      	ldr	r3, [r3, #0]
 8001fb0:	69db      	ldr	r3, [r3, #28]
 8001fb2:	22a4      	movs	r2, #164	@ 0xa4
 8001fb4:	18b9      	adds	r1, r7, r2
 8001fb6:	600b      	str	r3, [r1, #0]
 8001fb8:	687b      	ldr	r3, [r7, #4]
 8001fba:	681b      	ldr	r3, [r3, #0]
 8001fbc:	681b      	ldr	r3, [r3, #0]
 8001fbe:	20a0      	movs	r0, #160	@ 0xa0
 8001fc0:	1839      	adds	r1, r7, r0
 8001fc2:	600b      	str	r3, [r1, #0]
 8001fc4:	687b      	ldr	r3, [r7, #4]
 8001fc6:	681b      	ldr	r3, [r3, #0]
 8001fc8:	689b      	ldr	r3, [r3, #8]
 8001fca:	219c      	movs	r1, #156	@ 0x9c
 8001fcc:	1879      	adds	r1, r7, r1
 8001fce:	600b      	str	r3, [r1, #0]
 8001fd0:	0011      	movs	r1, r2
 8001fd2:	18bb      	adds	r3, r7, r2
 8001fd4:	681b      	ldr	r3, [r3, #0]
 8001fd6:	4a99      	ldr	r2, [pc, #612]	@ (800223c <HAL_UART_IRQHandler+0x298>)
 8001fd8:	4013      	ands	r3, r2
 8001fda:	2298      	movs	r2, #152	@ 0x98
 8001fdc:	18bc      	adds	r4, r7, r2
 8001fde:	6023      	str	r3, [r4, #0]
 8001fe0:	18bb      	adds	r3, r7, r2
 8001fe2:	681b      	ldr	r3, [r3, #0]
 8001fe4:	2b00      	cmp	r3, #0
 8001fe6:	d114      	bne.n	8002012 <HAL_UART_IRQHandler+0x6e>
 8001fe8:	187b      	adds	r3, r7, r1
 8001fea:	681b      	ldr	r3, [r3, #0]
 8001fec:	2220      	movs	r2, #32
 8001fee:	4013      	ands	r3, r2
 8001ff0:	d00f      	beq.n	8002012 <HAL_UART_IRQHandler+0x6e>
 8001ff2:	183b      	adds	r3, r7, r0
 8001ff4:	681b      	ldr	r3, [r3, #0]
 8001ff6:	2220      	movs	r2, #32
 8001ff8:	4013      	ands	r3, r2
 8001ffa:	d00a      	beq.n	8002012 <HAL_UART_IRQHandler+0x6e>
 8001ffc:	687b      	ldr	r3, [r7, #4]
 8001ffe:	6e9b      	ldr	r3, [r3, #104]	@ 0x68
 8002000:	2b00      	cmp	r3, #0
 8002002:	d100      	bne.n	8002006 <HAL_UART_IRQHandler+0x62>
 8002004:	e29e      	b.n	8002544 <HAL_UART_IRQHandler+0x5a0>
 8002006:	687b      	ldr	r3, [r7, #4]
 8002008:	6e9b      	ldr	r3, [r3, #104]	@ 0x68
 800200a:	687a      	ldr	r2, [r7, #4]
 800200c:	0010      	movs	r0, r2
 800200e:	4798      	blx	r3
 8002010:	e298      	b.n	8002544 <HAL_UART_IRQHandler+0x5a0>
 8002012:	2398      	movs	r3, #152	@ 0x98
 8002014:	18fb      	adds	r3, r7, r3
 8002016:	681b      	ldr	r3, [r3, #0]
 8002018:	2b00      	cmp	r3, #0
 800201a:	d100      	bne.n	800201e <HAL_UART_IRQHandler+0x7a>
 800201c:	e114      	b.n	8002248 <HAL_UART_IRQHandler+0x2a4>
 800201e:	239c      	movs	r3, #156	@ 0x9c
 8002020:	18fb      	adds	r3, r7, r3
 8002022:	681b      	ldr	r3, [r3, #0]
 8002024:	2201      	movs	r2, #1
 8002026:	4013      	ands	r3, r2
 8002028:	d106      	bne.n	8002038 <HAL_UART_IRQHandler+0x94>
 800202a:	23a0      	movs	r3, #160	@ 0xa0
 800202c:	18fb      	adds	r3, r7, r3
 800202e:	681b      	ldr	r3, [r3, #0]
 8002030:	4a83      	ldr	r2, [pc, #524]	@ (8002240 <HAL_UART_IRQHandler+0x29c>)
 8002032:	4013      	ands	r3, r2
 8002034:	d100      	bne.n	8002038 <HAL_UART_IRQHandler+0x94>
 8002036:	e107      	b.n	8002248 <HAL_UART_IRQHandler+0x2a4>
 8002038:	23a4      	movs	r3, #164	@ 0xa4
 800203a:	18fb      	adds	r3, r7, r3
 800203c:	681b      	ldr	r3, [r3, #0]
 800203e:	2201      	movs	r2, #1
 8002040:	4013      	ands	r3, r2
 8002042:	d012      	beq.n	800206a <HAL_UART_IRQHandler+0xc6>
 8002044:	23a0      	movs	r3, #160	@ 0xa0
 8002046:	18fb      	adds	r3, r7, r3
 8002048:	681a      	ldr	r2, [r3, #0]
 800204a:	2380      	movs	r3, #128	@ 0x80
 800204c:	005b      	lsls	r3, r3, #1
 800204e:	4013      	ands	r3, r2
 8002050:	d00b      	beq.n	800206a <HAL_UART_IRQHandler+0xc6>
 8002052:	687b      	ldr	r3, [r7, #4]
 8002054:	681b      	ldr	r3, [r3, #0]
 8002056:	2201      	movs	r2, #1
 8002058:	621a      	str	r2, [r3, #32]
 800205a:	687b      	ldr	r3, [r7, #4]
 800205c:	2284      	movs	r2, #132	@ 0x84
 800205e:	589b      	ldr	r3, [r3, r2]
 8002060:	2201      	movs	r2, #1
 8002062:	431a      	orrs	r2, r3
 8002064:	687b      	ldr	r3, [r7, #4]
 8002066:	2184      	movs	r1, #132	@ 0x84
 8002068:	505a      	str	r2, [r3, r1]
 800206a:	23a4      	movs	r3, #164	@ 0xa4
 800206c:	18fb      	adds	r3, r7, r3
 800206e:	681b      	ldr	r3, [r3, #0]
 8002070:	2202      	movs	r2, #2
 8002072:	4013      	ands	r3, r2
 8002074:	d011      	beq.n	800209a <HAL_UART_IRQHandler+0xf6>
 8002076:	239c      	movs	r3, #156	@ 0x9c
 8002078:	18fb      	adds	r3, r7, r3
 800207a:	681b      	ldr	r3, [r3, #0]
 800207c:	2201      	movs	r2, #1
 800207e:	4013      	ands	r3, r2
 8002080:	d00b      	beq.n	800209a <HAL_UART_IRQHandler+0xf6>
 8002082:	687b      	ldr	r3, [r7, #4]
 8002084:	681b      	ldr	r3, [r3, #0]
 8002086:	2202      	movs	r2, #2
 8002088:	621a      	str	r2, [r3, #32]
 800208a:	687b      	ldr	r3, [r7, #4]
 800208c:	2284      	movs	r2, #132	@ 0x84
 800208e:	589b      	ldr	r3, [r3, r2]
 8002090:	2204      	movs	r2, #4
 8002092:	431a      	orrs	r2, r3
 8002094:	687b      	ldr	r3, [r7, #4]
 8002096:	2184      	movs	r1, #132	@ 0x84
 8002098:	505a      	str	r2, [r3, r1]
 800209a:	23a4      	movs	r3, #164	@ 0xa4
 800209c:	18fb      	adds	r3, r7, r3
 800209e:	681b      	ldr	r3, [r3, #0]
 80020a0:	2204      	movs	r2, #4
 80020a2:	4013      	ands	r3, r2
 80020a4:	d011      	beq.n	80020ca <HAL_UART_IRQHandler+0x126>
 80020a6:	239c      	movs	r3, #156	@ 0x9c
 80020a8:	18fb      	adds	r3, r7, r3
 80020aa:	681b      	ldr	r3, [r3, #0]
 80020ac:	2201      	movs	r2, #1
 80020ae:	4013      	ands	r3, r2
 80020b0:	d00b      	beq.n	80020ca <HAL_UART_IRQHandler+0x126>
 80020b2:	687b      	ldr	r3, [r7, #4]
 80020b4:	681b      	ldr	r3, [r3, #0]
 80020b6:	2204      	movs	r2, #4
 80020b8:	621a      	str	r2, [r3, #32]
 80020ba:	687b      	ldr	r3, [r7, #4]
 80020bc:	2284      	movs	r2, #132	@ 0x84
 80020be:	589b      	ldr	r3, [r3, r2]
 80020c0:	2202      	movs	r2, #2
 80020c2:	431a      	orrs	r2, r3
 80020c4:	687b      	ldr	r3, [r7, #4]
 80020c6:	2184      	movs	r1, #132	@ 0x84
 80020c8:	505a      	str	r2, [r3, r1]
 80020ca:	23a4      	movs	r3, #164	@ 0xa4
 80020cc:	18fb      	adds	r3, r7, r3
 80020ce:	681b      	ldr	r3, [r3, #0]
 80020d0:	2208      	movs	r2, #8
 80020d2:	4013      	ands	r3, r2
 80020d4:	d017      	beq.n	8002106 <HAL_UART_IRQHandler+0x162>
 80020d6:	23a0      	movs	r3, #160	@ 0xa0
 80020d8:	18fb      	adds	r3, r7, r3
 80020da:	681b      	ldr	r3, [r3, #0]
 80020dc:	2220      	movs	r2, #32
 80020de:	4013      	ands	r3, r2
 80020e0:	d105      	bne.n	80020ee <HAL_UART_IRQHandler+0x14a>
 80020e2:	239c      	movs	r3, #156	@ 0x9c
 80020e4:	18fb      	adds	r3, r7, r3
 80020e6:	681b      	ldr	r3, [r3, #0]
 80020e8:	2201      	movs	r2, #1
 80020ea:	4013      	ands	r3, r2
 80020ec:	d00b      	beq.n	8002106 <HAL_UART_IRQHandler+0x162>
 80020ee:	687b      	ldr	r3, [r7, #4]
 80020f0:	681b      	ldr	r3, [r3, #0]
 80020f2:	2208      	movs	r2, #8
 80020f4:	621a      	str	r2, [r3, #32]
 80020f6:	687b      	ldr	r3, [r7, #4]
 80020f8:	2284      	movs	r2, #132	@ 0x84
 80020fa:	589b      	ldr	r3, [r3, r2]
 80020fc:	2208      	movs	r2, #8
 80020fe:	431a      	orrs	r2, r3
 8002100:	687b      	ldr	r3, [r7, #4]
 8002102:	2184      	movs	r1, #132	@ 0x84
 8002104:	505a      	str	r2, [r3, r1]
 8002106:	23a4      	movs	r3, #164	@ 0xa4
 8002108:	18fb      	adds	r3, r7, r3
 800210a:	681a      	ldr	r2, [r3, #0]
 800210c:	2380      	movs	r3, #128	@ 0x80
 800210e:	011b      	lsls	r3, r3, #4
 8002110:	4013      	ands	r3, r2
 8002112:	d013      	beq.n	800213c <HAL_UART_IRQHandler+0x198>
 8002114:	23a0      	movs	r3, #160	@ 0xa0
 8002116:	18fb      	adds	r3, r7, r3
 8002118:	681a      	ldr	r2, [r3, #0]
 800211a:	2380      	movs	r3, #128	@ 0x80
 800211c:	04db      	lsls	r3, r3, #19
 800211e:	4013      	ands	r3, r2
 8002120:	d00c      	beq.n	800213c <HAL_UART_IRQHandler+0x198>
 8002122:	687b      	ldr	r3, [r7, #4]
 8002124:	681b      	ldr	r3, [r3, #0]
 8002126:	2280      	movs	r2, #128	@ 0x80
 8002128:	0112      	lsls	r2, r2, #4
 800212a:	621a      	str	r2, [r3, #32]
 800212c:	687b      	ldr	r3, [r7, #4]
 800212e:	2284      	movs	r2, #132	@ 0x84
 8002130:	589b      	ldr	r3, [r3, r2]
 8002132:	2220      	movs	r2, #32
 8002134:	431a      	orrs	r2, r3
 8002136:	687b      	ldr	r3, [r7, #4]
 8002138:	2184      	movs	r1, #132	@ 0x84
 800213a:	505a      	str	r2, [r3, r1]
 800213c:	687b      	ldr	r3, [r7, #4]
 800213e:	2284      	movs	r2, #132	@ 0x84
 8002140:	589b      	ldr	r3, [r3, r2]
 8002142:	2b00      	cmp	r3, #0
 8002144:	d100      	bne.n	8002148 <HAL_UART_IRQHandler+0x1a4>
 8002146:	e1ff      	b.n	8002548 <HAL_UART_IRQHandler+0x5a4>
 8002148:	23a4      	movs	r3, #164	@ 0xa4
 800214a:	18fb      	adds	r3, r7, r3
 800214c:	681b      	ldr	r3, [r3, #0]
 800214e:	2220      	movs	r2, #32
 8002150:	4013      	ands	r3, r2
 8002152:	d00e      	beq.n	8002172 <HAL_UART_IRQHandler+0x1ce>
 8002154:	23a0      	movs	r3, #160	@ 0xa0
 8002156:	18fb      	adds	r3, r7, r3
 8002158:	681b      	ldr	r3, [r3, #0]
 800215a:	2220      	movs	r2, #32
 800215c:	4013      	ands	r3, r2
 800215e:	d008      	beq.n	8002172 <HAL_UART_IRQHandler+0x1ce>
 8002160:	687b      	ldr	r3, [r7, #4]
 8002162:	6e9b      	ldr	r3, [r3, #104]	@ 0x68
 8002164:	2b00      	cmp	r3, #0
 8002166:	d004      	beq.n	8002172 <HAL_UART_IRQHandler+0x1ce>
 8002168:	687b      	ldr	r3, [r7, #4]
 800216a:	6e9b      	ldr	r3, [r3, #104]	@ 0x68
 800216c:	687a      	ldr	r2, [r7, #4]
 800216e:	0010      	movs	r0, r2
 8002170:	4798      	blx	r3
 8002172:	687b      	ldr	r3, [r7, #4]
 8002174:	2284      	movs	r2, #132	@ 0x84
 8002176:	589b      	ldr	r3, [r3, r2]
 8002178:	2194      	movs	r1, #148	@ 0x94
 800217a:	187a      	adds	r2, r7, r1
 800217c:	6013      	str	r3, [r2, #0]
 800217e:	687b      	ldr	r3, [r7, #4]
 8002180:	681b      	ldr	r3, [r3, #0]
 8002182:	689b      	ldr	r3, [r3, #8]
 8002184:	2240      	movs	r2, #64	@ 0x40
 8002186:	4013      	ands	r3, r2
 8002188:	2b40      	cmp	r3, #64	@ 0x40
 800218a:	d004      	beq.n	8002196 <HAL_UART_IRQHandler+0x1f2>
 800218c:	187b      	adds	r3, r7, r1
 800218e:	681b      	ldr	r3, [r3, #0]
 8002190:	2228      	movs	r2, #40	@ 0x28
 8002192:	4013      	ands	r3, r2
 8002194:	d047      	beq.n	8002226 <HAL_UART_IRQHandler+0x282>
 8002196:	687b      	ldr	r3, [r7, #4]
 8002198:	0018      	movs	r0, r3
 800219a:	f000 fdd7 	bl	8002d4c <UART_EndRxTransfer>
 800219e:	687b      	ldr	r3, [r7, #4]
 80021a0:	681b      	ldr	r3, [r3, #0]
 80021a2:	689b      	ldr	r3, [r3, #8]
 80021a4:	2240      	movs	r2, #64	@ 0x40
 80021a6:	4013      	ands	r3, r2
 80021a8:	2b40      	cmp	r3, #64	@ 0x40
 80021aa:	d137      	bne.n	800221c <HAL_UART_IRQHandler+0x278>
 80021ac:	f3ef 8310 	mrs	r3, PRIMASK
 80021b0:	663b      	str	r3, [r7, #96]	@ 0x60
 80021b2:	6e3b      	ldr	r3, [r7, #96]	@ 0x60
 80021b4:	2090      	movs	r0, #144	@ 0x90
 80021b6:	183a      	adds	r2, r7, r0
 80021b8:	6013      	str	r3, [r2, #0]
 80021ba:	2301      	movs	r3, #1
 80021bc:	667b      	str	r3, [r7, #100]	@ 0x64
 80021be:	6e7b      	ldr	r3, [r7, #100]	@ 0x64
 80021c0:	f383 8810 	msr	PRIMASK, r3
 80021c4:	46c0      	nop			@ (mov r8, r8)
 80021c6:	687b      	ldr	r3, [r7, #4]
 80021c8:	681b      	ldr	r3, [r3, #0]
 80021ca:	689a      	ldr	r2, [r3, #8]
 80021cc:	687b      	ldr	r3, [r7, #4]
 80021ce:	681b      	ldr	r3, [r3, #0]
 80021d0:	2140      	movs	r1, #64	@ 0x40
 80021d2:	438a      	bics	r2, r1
 80021d4:	609a      	str	r2, [r3, #8]
 80021d6:	183b      	adds	r3, r7, r0
 80021d8:	681b      	ldr	r3, [r3, #0]
 80021da:	66bb      	str	r3, [r7, #104]	@ 0x68
 80021dc:	6ebb      	ldr	r3, [r7, #104]	@ 0x68
 80021de:	f383 8810 	msr	PRIMASK, r3
 80021e2:	46c0      	nop			@ (mov r8, r8)
 80021e4:	687b      	ldr	r3, [r7, #4]
 80021e6:	6f5b      	ldr	r3, [r3, #116]	@ 0x74
 80021e8:	2b00      	cmp	r3, #0
 80021ea:	d012      	beq.n	8002212 <HAL_UART_IRQHandler+0x26e>
 80021ec:	687b      	ldr	r3, [r7, #4]
 80021ee:	6f5b      	ldr	r3, [r3, #116]	@ 0x74
 80021f0:	4a14      	ldr	r2, [pc, #80]	@ (8002244 <HAL_UART_IRQHandler+0x2a0>)
 80021f2:	635a      	str	r2, [r3, #52]	@ 0x34
 80021f4:	687b      	ldr	r3, [r7, #4]
 80021f6:	6f5b      	ldr	r3, [r3, #116]	@ 0x74
 80021f8:	0018      	movs	r0, r3
 80021fa:	f7fe fd8f 	bl	8000d1c <HAL_DMA_Abort_IT>
 80021fe:	1e03      	subs	r3, r0, #0
 8002200:	d01a      	beq.n	8002238 <HAL_UART_IRQHandler+0x294>
 8002202:	687b      	ldr	r3, [r7, #4]
 8002204:	6f5b      	ldr	r3, [r3, #116]	@ 0x74
 8002206:	6b5a      	ldr	r2, [r3, #52]	@ 0x34
 8002208:	687b      	ldr	r3, [r7, #4]
 800220a:	6f5b      	ldr	r3, [r3, #116]	@ 0x74
 800220c:	0018      	movs	r0, r3
 800220e:	4790      	blx	r2
 8002210:	e012      	b.n	8002238 <HAL_UART_IRQHandler+0x294>
 8002212:	687b      	ldr	r3, [r7, #4]
 8002214:	0018      	movs	r0, r3
 8002216:	f000 f9b5 	bl	8002584 <HAL_UART_ErrorCallback>
 800221a:	e00d      	b.n	8002238 <HAL_UART_IRQHandler+0x294>
 800221c:	687b      	ldr	r3, [r7, #4]
 800221e:	0018      	movs	r0, r3
 8002220:	f000 f9b0 	bl	8002584 <HAL_UART_ErrorCallback>
 8002224:	e008      	b.n	8002238 <HAL_UART_IRQHandler+0x294>
 8002226:	687b      	ldr	r3, [r7, #4]
 8002228:	0018      	movs	r0, r3
 800222a:	f000 f9ab 	bl	8002584 <HAL_UART_ErrorCallback>
 800222e:	687b      	ldr	r3, [r7, #4]
 8002230:	2284      	movs	r2, #132	@ 0x84
 8002232:	2100      	movs	r1, #0
 8002234:	5099      	str	r1, [r3, r2]
 8002236:	e187      	b.n	8002548 <HAL_UART_IRQHandler+0x5a4>
 8002238:	46c0      	nop			@ (mov r8, r8)
 800223a:	e185      	b.n	8002548 <HAL_UART_IRQHandler+0x5a4>
 800223c:	0000080f 	.word	0x0000080f
 8002240:	04000120 	.word	0x04000120
 8002244:	08003007 	.word	0x08003007
 8002248:	687b      	ldr	r3, [r7, #4]
 800224a:	6e1b      	ldr	r3, [r3, #96]	@ 0x60
 800224c:	2b01      	cmp	r3, #1
 800224e:	d000      	beq.n	8002252 <HAL_UART_IRQHandler+0x2ae>
 8002250:	e139      	b.n	80024c6 <HAL_UART_IRQHandler+0x522>
 8002252:	23a4      	movs	r3, #164	@ 0xa4
 8002254:	18fb      	adds	r3, r7, r3
 8002256:	681b      	ldr	r3, [r3, #0]
 8002258:	2210      	movs	r2, #16
 800225a:	4013      	ands	r3, r2
 800225c:	d100      	bne.n	8002260 <HAL_UART_IRQHandler+0x2bc>
 800225e:	e132      	b.n	80024c6 <HAL_UART_IRQHandler+0x522>
 8002260:	23a0      	movs	r3, #160	@ 0xa0
 8002262:	18fb      	adds	r3, r7, r3
 8002264:	681b      	ldr	r3, [r3, #0]
 8002266:	2210      	movs	r2, #16
 8002268:	4013      	ands	r3, r2
 800226a:	d100      	bne.n	800226e <HAL_UART_IRQHandler+0x2ca>
 800226c:	e12b      	b.n	80024c6 <HAL_UART_IRQHandler+0x522>
 800226e:	687b      	ldr	r3, [r7, #4]
 8002270:	681b      	ldr	r3, [r3, #0]
 8002272:	2210      	movs	r2, #16
 8002274:	621a      	str	r2, [r3, #32]
 8002276:	687b      	ldr	r3, [r7, #4]
 8002278:	681b      	ldr	r3, [r3, #0]
 800227a:	689b      	ldr	r3, [r3, #8]
 800227c:	2240      	movs	r2, #64	@ 0x40
 800227e:	4013      	ands	r3, r2
 8002280:	2b40      	cmp	r3, #64	@ 0x40
 8002282:	d000      	beq.n	8002286 <HAL_UART_IRQHandler+0x2e2>
 8002284:	e09f      	b.n	80023c6 <HAL_UART_IRQHandler+0x422>
 8002286:	687b      	ldr	r3, [r7, #4]
 8002288:	6f5b      	ldr	r3, [r3, #116]	@ 0x74
 800228a:	681b      	ldr	r3, [r3, #0]
 800228c:	685a      	ldr	r2, [r3, #4]
 800228e:	217e      	movs	r1, #126	@ 0x7e
 8002290:	187b      	adds	r3, r7, r1
 8002292:	801a      	strh	r2, [r3, #0]
 8002294:	187b      	adds	r3, r7, r1
 8002296:	881b      	ldrh	r3, [r3, #0]
 8002298:	2b00      	cmp	r3, #0
 800229a:	d100      	bne.n	800229e <HAL_UART_IRQHandler+0x2fa>
 800229c:	e156      	b.n	800254c <HAL_UART_IRQHandler+0x5a8>
 800229e:	687b      	ldr	r3, [r7, #4]
 80022a0:	2258      	movs	r2, #88	@ 0x58
 80022a2:	5a9b      	ldrh	r3, [r3, r2]
 80022a4:	187a      	adds	r2, r7, r1
 80022a6:	8812      	ldrh	r2, [r2, #0]
 80022a8:	429a      	cmp	r2, r3
 80022aa:	d300      	bcc.n	80022ae <HAL_UART_IRQHandler+0x30a>
 80022ac:	e14e      	b.n	800254c <HAL_UART_IRQHandler+0x5a8>
 80022ae:	687b      	ldr	r3, [r7, #4]
 80022b0:	187a      	adds	r2, r7, r1
 80022b2:	215a      	movs	r1, #90	@ 0x5a
 80022b4:	8812      	ldrh	r2, [r2, #0]
 80022b6:	525a      	strh	r2, [r3, r1]
 80022b8:	687b      	ldr	r3, [r7, #4]
 80022ba:	6f5b      	ldr	r3, [r3, #116]	@ 0x74
 80022bc:	699b      	ldr	r3, [r3, #24]
 80022be:	2b20      	cmp	r3, #32
 80022c0:	d06f      	beq.n	80023a2 <HAL_UART_IRQHandler+0x3fe>
 80022c2:	f3ef 8310 	mrs	r3, PRIMASK
 80022c6:	633b      	str	r3, [r7, #48]	@ 0x30
 80022c8:	6b3b      	ldr	r3, [r7, #48]	@ 0x30
 80022ca:	67bb      	str	r3, [r7, #120]	@ 0x78
 80022cc:	2301      	movs	r3, #1
 80022ce:	637b      	str	r3, [r7, #52]	@ 0x34
 80022d0:	6b7b      	ldr	r3, [r7, #52]	@ 0x34
 80022d2:	f383 8810 	msr	PRIMASK, r3
 80022d6:	46c0      	nop			@ (mov r8, r8)
 80022d8:	687b      	ldr	r3, [r7, #4]
 80022da:	681b      	ldr	r3, [r3, #0]
 80022dc:	681a      	ldr	r2, [r3, #0]
 80022de:	687b      	ldr	r3, [r7, #4]
 80022e0:	681b      	ldr	r3, [r3, #0]
 80022e2:	499e      	ldr	r1, [pc, #632]	@ (800255c <HAL_UART_IRQHandler+0x5b8>)
 80022e4:	400a      	ands	r2, r1
 80022e6:	601a      	str	r2, [r3, #0]
 80022e8:	6fbb      	ldr	r3, [r7, #120]	@ 0x78
 80022ea:	63bb      	str	r3, [r7, #56]	@ 0x38
 80022ec:	6bbb      	ldr	r3, [r7, #56]	@ 0x38
 80022ee:	f383 8810 	msr	PRIMASK, r3
 80022f2:	46c0      	nop			@ (mov r8, r8)
 80022f4:	f3ef 8310 	mrs	r3, PRIMASK
 80022f8:	63fb      	str	r3, [r7, #60]	@ 0x3c
 80022fa:	6bfb      	ldr	r3, [r7, #60]	@ 0x3c
 80022fc:	677b      	str	r3, [r7, #116]	@ 0x74
 80022fe:	2301      	movs	r3, #1
 8002300:	643b      	str	r3, [r7, #64]	@ 0x40
 8002302:	6c3b      	ldr	r3, [r7, #64]	@ 0x40
 8002304:	f383 8810 	msr	PRIMASK, r3
 8002308:	46c0      	nop			@ (mov r8, r8)
 800230a:	687b      	ldr	r3, [r7, #4]
 800230c:	681b      	ldr	r3, [r3, #0]
 800230e:	689a      	ldr	r2, [r3, #8]
 8002310:	687b      	ldr	r3, [r7, #4]
 8002312:	681b      	ldr	r3, [r3, #0]
 8002314:	2101      	movs	r1, #1
 8002316:	438a      	bics	r2, r1
 8002318:	609a      	str	r2, [r3, #8]
 800231a:	6f7b      	ldr	r3, [r7, #116]	@ 0x74
 800231c:	647b      	str	r3, [r7, #68]	@ 0x44
 800231e:	6c7b      	ldr	r3, [r7, #68]	@ 0x44
 8002320:	f383 8810 	msr	PRIMASK, r3
 8002324:	46c0      	nop			@ (mov r8, r8)
 8002326:	f3ef 8310 	mrs	r3, PRIMASK
 800232a:	64bb      	str	r3, [r7, #72]	@ 0x48
 800232c:	6cbb      	ldr	r3, [r7, #72]	@ 0x48
 800232e:	673b      	str	r3, [r7, #112]	@ 0x70
 8002330:	2301      	movs	r3, #1
 8002332:	64fb      	str	r3, [r7, #76]	@ 0x4c
 8002334:	6cfb      	ldr	r3, [r7, #76]	@ 0x4c
 8002336:	f383 8810 	msr	PRIMASK, r3
 800233a:	46c0      	nop			@ (mov r8, r8)
 800233c:	687b      	ldr	r3, [r7, #4]
 800233e:	681b      	ldr	r3, [r3, #0]
 8002340:	689a      	ldr	r2, [r3, #8]
 8002342:	687b      	ldr	r3, [r7, #4]
 8002344:	681b      	ldr	r3, [r3, #0]
 8002346:	2140      	movs	r1, #64	@ 0x40
 8002348:	438a      	bics	r2, r1
 800234a:	609a      	str	r2, [r3, #8]
 800234c:	6f3b      	ldr	r3, [r7, #112]	@ 0x70
 800234e:	653b      	str	r3, [r7, #80]	@ 0x50
 8002350:	6d3b      	ldr	r3, [r7, #80]	@ 0x50
 8002352:	f383 8810 	msr	PRIMASK, r3
 8002356:	46c0      	nop			@ (mov r8, r8)
 8002358:	687b      	ldr	r3, [r7, #4]
 800235a:	2280      	movs	r2, #128	@ 0x80
 800235c:	2120      	movs	r1, #32
 800235e:	5099      	str	r1, [r3, r2]
 8002360:	687b      	ldr	r3, [r7, #4]
 8002362:	2200      	movs	r2, #0
 8002364:	661a      	str	r2, [r3, #96]	@ 0x60
 8002366:	f3ef 8310 	mrs	r3, PRIMASK
 800236a:	657b      	str	r3, [r7, #84]	@ 0x54
 800236c:	6d7b      	ldr	r3, [r7, #84]	@ 0x54
 800236e:	66fb      	str	r3, [r7, #108]	@ 0x6c
 8002370:	2301      	movs	r3, #1
 8002372:	65bb      	str	r3, [r7, #88]	@ 0x58
 8002374:	6dbb      	ldr	r3, [r7, #88]	@ 0x58
 8002376:	f383 8810 	msr	PRIMASK, r3
 800237a:	46c0      	nop			@ (mov r8, r8)
 800237c:	687b      	ldr	r3, [r7, #4]
 800237e:	681b      	ldr	r3, [r3, #0]
 8002380:	681a      	ldr	r2, [r3, #0]
 8002382:	687b      	ldr	r3, [r7, #4]
 8002384:	681b      	ldr	r3, [r3, #0]
 8002386:	2110      	movs	r1, #16
 8002388:	438a      	bics	r2, r1
 800238a:	601a      	str	r2, [r3, #0]
 800238c:	6efb      	ldr	r3, [r7, #108]	@ 0x6c
 800238e:	65fb      	str	r3, [r7, #92]	@ 0x5c
 8002390:	6dfb      	ldr	r3, [r7, #92]	@ 0x5c
 8002392:	f383 8810 	msr	PRIMASK, r3
 8002396:	46c0      	nop			@ (mov r8, r8)
 8002398:	687b      	ldr	r3, [r7, #4]
 800239a:	6f5b      	ldr	r3, [r3, #116]	@ 0x74
 800239c:	0018      	movs	r0, r3
 800239e:	f7fe fc85 	bl	8000cac <HAL_DMA_Abort>
 80023a2:	687b      	ldr	r3, [r7, #4]
 80023a4:	2202      	movs	r2, #2
 80023a6:	665a      	str	r2, [r3, #100]	@ 0x64
 80023a8:	687b      	ldr	r3, [r7, #4]
 80023aa:	2258      	movs	r2, #88	@ 0x58
 80023ac:	5a9a      	ldrh	r2, [r3, r2]
 80023ae:	687b      	ldr	r3, [r7, #4]
 80023b0:	215a      	movs	r1, #90	@ 0x5a
 80023b2:	5a5b      	ldrh	r3, [r3, r1]
 80023b4:	b29b      	uxth	r3, r3
 80023b6:	1ad3      	subs	r3, r2, r3
 80023b8:	b29a      	uxth	r2, r3
 80023ba:	687b      	ldr	r3, [r7, #4]
 80023bc:	0011      	movs	r1, r2
 80023be:	0018      	movs	r0, r3
 80023c0:	f000 f8e8 	bl	8002594 <HAL_UARTEx_RxEventCallback>
 80023c4:	e0c2      	b.n	800254c <HAL_UART_IRQHandler+0x5a8>
 80023c6:	687b      	ldr	r3, [r7, #4]
 80023c8:	2258      	movs	r2, #88	@ 0x58
 80023ca:	5a99      	ldrh	r1, [r3, r2]
 80023cc:	687b      	ldr	r3, [r7, #4]
 80023ce:	225a      	movs	r2, #90	@ 0x5a
 80023d0:	5a9b      	ldrh	r3, [r3, r2]
 80023d2:	b29a      	uxth	r2, r3
 80023d4:	208e      	movs	r0, #142	@ 0x8e
 80023d6:	183b      	adds	r3, r7, r0
 80023d8:	1a8a      	subs	r2, r1, r2
 80023da:	801a      	strh	r2, [r3, #0]
 80023dc:	687b      	ldr	r3, [r7, #4]
 80023de:	225a      	movs	r2, #90	@ 0x5a
 80023e0:	5a9b      	ldrh	r3, [r3, r2]
 80023e2:	b29b      	uxth	r3, r3
 80023e4:	2b00      	cmp	r3, #0
 80023e6:	d100      	bne.n	80023ea <HAL_UART_IRQHandler+0x446>
 80023e8:	e0b2      	b.n	8002550 <HAL_UART_IRQHandler+0x5ac>
 80023ea:	183b      	adds	r3, r7, r0
 80023ec:	881b      	ldrh	r3, [r3, #0]
 80023ee:	2b00      	cmp	r3, #0
 80023f0:	d100      	bne.n	80023f4 <HAL_UART_IRQHandler+0x450>
 80023f2:	e0ad      	b.n	8002550 <HAL_UART_IRQHandler+0x5ac>
 80023f4:	f3ef 8310 	mrs	r3, PRIMASK
 80023f8:	60fb      	str	r3, [r7, #12]
 80023fa:	68fb      	ldr	r3, [r7, #12]
 80023fc:	2488      	movs	r4, #136	@ 0x88
 80023fe:	193a      	adds	r2, r7, r4
 8002400:	6013      	str	r3, [r2, #0]
 8002402:	2301      	movs	r3, #1
 8002404:	613b      	str	r3, [r7, #16]
 8002406:	693b      	ldr	r3, [r7, #16]
 8002408:	f383 8810 	msr	PRIMASK, r3
 800240c:	46c0      	nop			@ (mov r8, r8)
 800240e:	687b      	ldr	r3, [r7, #4]
 8002410:	681b      	ldr	r3, [r3, #0]
 8002412:	681a      	ldr	r2, [r3, #0]
 8002414:	687b      	ldr	r3, [r7, #4]
 8002416:	681b      	ldr	r3, [r3, #0]
 8002418:	4951      	ldr	r1, [pc, #324]	@ (8002560 <HAL_UART_IRQHandler+0x5bc>)
 800241a:	400a      	ands	r2, r1
 800241c:	601a      	str	r2, [r3, #0]
 800241e:	193b      	adds	r3, r7, r4
 8002420:	681b      	ldr	r3, [r3, #0]
 8002422:	617b      	str	r3, [r7, #20]
 8002424:	697b      	ldr	r3, [r7, #20]
 8002426:	f383 8810 	msr	PRIMASK, r3
 800242a:	46c0      	nop			@ (mov r8, r8)
 800242c:	f3ef 8310 	mrs	r3, PRIMASK
 8002430:	61bb      	str	r3, [r7, #24]
 8002432:	69bb      	ldr	r3, [r7, #24]
 8002434:	2484      	movs	r4, #132	@ 0x84
 8002436:	193a      	adds	r2, r7, r4
 8002438:	6013      	str	r3, [r2, #0]
 800243a:	2301      	movs	r3, #1
 800243c:	61fb      	str	r3, [r7, #28]
 800243e:	69fb      	ldr	r3, [r7, #28]
 8002440:	f383 8810 	msr	PRIMASK, r3
 8002444:	46c0      	nop			@ (mov r8, r8)
 8002446:	687b      	ldr	r3, [r7, #4]
 8002448:	681b      	ldr	r3, [r3, #0]
 800244a:	689a      	ldr	r2, [r3, #8]
 800244c:	687b      	ldr	r3, [r7, #4]
 800244e:	681b      	ldr	r3, [r3, #0]
 8002450:	2101      	movs	r1, #1
 8002452:	438a      	bics	r2, r1
 8002454:	609a      	str	r2, [r3, #8]
 8002456:	193b      	adds	r3, r7, r4
 8002458:	681b      	ldr	r3, [r3, #0]
 800245a:	623b      	str	r3, [r7, #32]
 800245c:	6a3b      	ldr	r3, [r7, #32]
 800245e:	f383 8810 	msr	PRIMASK, r3
 8002462:	46c0      	nop			@ (mov r8, r8)
 8002464:	687b      	ldr	r3, [r7, #4]
 8002466:	2280      	movs	r2, #128	@ 0x80
 8002468:	2120      	movs	r1, #32
 800246a:	5099      	str	r1, [r3, r2]
 800246c:	687b      	ldr	r3, [r7, #4]
 800246e:	2200      	movs	r2, #0
 8002470:	661a      	str	r2, [r3, #96]	@ 0x60
 8002472:	687b      	ldr	r3, [r7, #4]
 8002474:	2200      	movs	r2, #0
 8002476:	669a      	str	r2, [r3, #104]	@ 0x68
 8002478:	f3ef 8310 	mrs	r3, PRIMASK
 800247c:	627b      	str	r3, [r7, #36]	@ 0x24
 800247e:	6a7b      	ldr	r3, [r7, #36]	@ 0x24
 8002480:	2480      	movs	r4, #128	@ 0x80
 8002482:	193a      	adds	r2, r7, r4
 8002484:	6013      	str	r3, [r2, #0]
 8002486:	2301      	movs	r3, #1
 8002488:	62bb      	str	r3, [r7, #40]	@ 0x28
 800248a:	6abb      	ldr	r3, [r7, #40]	@ 0x28
 800248c:	f383 8810 	msr	PRIMASK, r3
 8002490:	46c0      	nop			@ (mov r8, r8)
 8002492:	687b      	ldr	r3, [r7, #4]
 8002494:	681b      	ldr	r3, [r3, #0]
 8002496:	681a      	ldr	r2, [r3, #0]
 8002498:	687b      	ldr	r3, [r7, #4]
 800249a:	681b      	ldr	r3, [r3, #0]
 800249c:	2110      	movs	r1, #16
 800249e:	438a      	bics	r2, r1
 80024a0:	601a      	str	r2, [r3, #0]
 80024a2:	193b      	adds	r3, r7, r4
 80024a4:	681b      	ldr	r3, [r3, #0]
 80024a6:	62fb      	str	r3, [r7, #44]	@ 0x2c
 80024a8:	6afb      	ldr	r3, [r7, #44]	@ 0x2c
 80024aa:	f383 8810 	msr	PRIMASK, r3
 80024ae:	46c0      	nop			@ (mov r8, r8)
 80024b0:	687b      	ldr	r3, [r7, #4]
 80024b2:	2202      	movs	r2, #2
 80024b4:	665a      	str	r2, [r3, #100]	@ 0x64
 80024b6:	183b      	adds	r3, r7, r0
 80024b8:	881a      	ldrh	r2, [r3, #0]
 80024ba:	687b      	ldr	r3, [r7, #4]
 80024bc:	0011      	movs	r1, r2
 80024be:	0018      	movs	r0, r3
 80024c0:	f000 f868 	bl	8002594 <HAL_UARTEx_RxEventCallback>
 80024c4:	e044      	b.n	8002550 <HAL_UART_IRQHandler+0x5ac>
 80024c6:	23a4      	movs	r3, #164	@ 0xa4
 80024c8:	18fb      	adds	r3, r7, r3
 80024ca:	681a      	ldr	r2, [r3, #0]
 80024cc:	2380      	movs	r3, #128	@ 0x80
 80024ce:	035b      	lsls	r3, r3, #13
 80024d0:	4013      	ands	r3, r2
 80024d2:	d010      	beq.n	80024f6 <HAL_UART_IRQHandler+0x552>
 80024d4:	239c      	movs	r3, #156	@ 0x9c
 80024d6:	18fb      	adds	r3, r7, r3
 80024d8:	681a      	ldr	r2, [r3, #0]
 80024da:	2380      	movs	r3, #128	@ 0x80
 80024dc:	03db      	lsls	r3, r3, #15
 80024de:	4013      	ands	r3, r2
 80024e0:	d009      	beq.n	80024f6 <HAL_UART_IRQHandler+0x552>
 80024e2:	687b      	ldr	r3, [r7, #4]
 80024e4:	681b      	ldr	r3, [r3, #0]
 80024e6:	2280      	movs	r2, #128	@ 0x80
 80024e8:	0352      	lsls	r2, r2, #13
 80024ea:	621a      	str	r2, [r3, #32]
 80024ec:	687b      	ldr	r3, [r7, #4]
 80024ee:	0018      	movs	r0, r3
 80024f0:	f000 fdcb 	bl	800308a <HAL_UARTEx_WakeupCallback>
 80024f4:	e02f      	b.n	8002556 <HAL_UART_IRQHandler+0x5b2>
 80024f6:	23a4      	movs	r3, #164	@ 0xa4
 80024f8:	18fb      	adds	r3, r7, r3
 80024fa:	681b      	ldr	r3, [r3, #0]
 80024fc:	2280      	movs	r2, #128	@ 0x80
 80024fe:	4013      	ands	r3, r2
 8002500:	d00f      	beq.n	8002522 <HAL_UART_IRQHandler+0x57e>
 8002502:	23a0      	movs	r3, #160	@ 0xa0
 8002504:	18fb      	adds	r3, r7, r3
 8002506:	681b      	ldr	r3, [r3, #0]
 8002508:	2280      	movs	r2, #128	@ 0x80
 800250a:	4013      	ands	r3, r2
 800250c:	d009      	beq.n	8002522 <HAL_UART_IRQHandler+0x57e>
 800250e:	687b      	ldr	r3, [r7, #4]
 8002510:	6edb      	ldr	r3, [r3, #108]	@ 0x6c
 8002512:	2b00      	cmp	r3, #0
 8002514:	d01e      	beq.n	8002554 <HAL_UART_IRQHandler+0x5b0>
 8002516:	687b      	ldr	r3, [r7, #4]
 8002518:	6edb      	ldr	r3, [r3, #108]	@ 0x6c
 800251a:	687a      	ldr	r2, [r7, #4]
 800251c:	0010      	movs	r0, r2
 800251e:	4798      	blx	r3
 8002520:	e018      	b.n	8002554 <HAL_UART_IRQHandler+0x5b0>
 8002522:	23a4      	movs	r3, #164	@ 0xa4
 8002524:	18fb      	adds	r3, r7, r3
 8002526:	681b      	ldr	r3, [r3, #0]
 8002528:	2240      	movs	r2, #64	@ 0x40
 800252a:	4013      	ands	r3, r2
 800252c:	d013      	beq.n	8002556 <HAL_UART_IRQHandler+0x5b2>
 800252e:	23a0      	movs	r3, #160	@ 0xa0
 8002530:	18fb      	adds	r3, r7, r3
 8002532:	681b      	ldr	r3, [r3, #0]
 8002534:	2240      	movs	r2, #64	@ 0x40
 8002536:	4013      	ands	r3, r2
 8002538:	d00d      	beq.n	8002556 <HAL_UART_IRQHandler+0x5b2>
 800253a:	687b      	ldr	r3, [r7, #4]
 800253c:	0018      	movs	r0, r3
 800253e:	f000 fd79 	bl	8003034 <UART_EndTransmit_IT>
 8002542:	e008      	b.n	8002556 <HAL_UART_IRQHandler+0x5b2>
 8002544:	46c0      	nop			@ (mov r8, r8)
 8002546:	e006      	b.n	8002556 <HAL_UART_IRQHandler+0x5b2>
 8002548:	46c0      	nop			@ (mov r8, r8)
 800254a:	e004      	b.n	8002556 <HAL_UART_IRQHandler+0x5b2>
 800254c:	46c0      	nop			@ (mov r8, r8)
 800254e:	e002      	b.n	8002556 <HAL_UART_IRQHandler+0x5b2>
 8002550:	46c0      	nop			@ (mov r8, r8)
 8002552:	e000      	b.n	8002556 <HAL_UART_IRQHandler+0x5b2>
 8002554:	46c0      	nop			@ (mov r8, r8)
 8002556:	46bd      	mov	sp, r7
 8002558:	b02b      	add	sp, #172	@ 0xac
 800255a:	bd90      	pop	{r4, r7, pc}
 800255c:	fffffeff 	.word	0xfffffeff
 8002560:	fffffedf 	.word	0xfffffedf

08002564 <HAL_UART_TxCpltCallback>:
 8002564:	b580      	push	{r7, lr}
 8002566:	b082      	sub	sp, #8
 8002568:	af00      	add	r7, sp, #0
 800256a:	6078      	str	r0, [r7, #4]
 800256c:	46c0      	nop			@ (mov r8, r8)
 800256e:	46bd      	mov	sp, r7
 8002570:	b002      	add	sp, #8
 8002572:	bd80      	pop	{r7, pc}

08002574 <HAL_UART_RxHalfCpltCallback>:
 8002574:	b580      	push	{r7, lr}
 8002576:	b082      	sub	sp, #8
 8002578:	af00      	add	r7, sp, #0
 800257a:	6078      	str	r0, [r7, #4]
 800257c:	46c0      	nop			@ (mov r8, r8)
 800257e:	46bd      	mov	sp, r7
 8002580:	b002      	add	sp, #8
 8002582:	bd80      	pop	{r7, pc}

08002584 <HAL_UART_ErrorCallback>:
 8002584:	b580      	push	{r7, lr}
 8002586:	b082      	sub	sp, #8
 8002588:	af00      	add	r7, sp, #0
 800258a:	6078      	str	r0, [r7, #4]
 800258c:	46c0      	nop			@ (mov r8, r8)
 800258e:	46bd      	mov	sp, r7
 8002590:	b002      	add	sp, #8
 8002592:	bd80      	pop	{r7, pc}

08002594 <HAL_UARTEx_RxEventCallback>:
 8002594:	b580      	push	{r7, lr}
 8002596:	b082      	sub	sp, #8
 8002598:	af00      	add	r7, sp, #0
 800259a:	6078      	str	r0, [r7, #4]
 800259c:	000a      	movs	r2, r1
 800259e:	1cbb      	adds	r3, r7, #2
 80025a0:	801a      	strh	r2, [r3, #0]
 80025a2:	46c0      	nop			@ (mov r8, r8)
 80025a4:	46bd      	mov	sp, r7
 80025a6:	b002      	add	sp, #8
 80025a8:	bd80      	pop	{r7, pc}
	...

080025ac <UART_SetConfig>:
 80025ac:	b580      	push	{r7, lr}
 80025ae:	b088      	sub	sp, #32
 80025b0:	af00      	add	r7, sp, #0
 80025b2:	6078      	str	r0, [r7, #4]
 80025b4:	231e      	movs	r3, #30
 80025b6:	18fb      	adds	r3, r7, r3
 80025b8:	2200      	movs	r2, #0
 80025ba:	701a      	strb	r2, [r3, #0]
 80025bc:	687b      	ldr	r3, [r7, #4]
 80025be:	689a      	ldr	r2, [r3, #8]
 80025c0:	687b      	ldr	r3, [r7, #4]
 80025c2:	691b      	ldr	r3, [r3, #16]
 80025c4:	431a      	orrs	r2, r3
 80025c6:	687b      	ldr	r3, [r7, #4]
 80025c8:	695b      	ldr	r3, [r3, #20]
 80025ca:	431a      	orrs	r2, r3
 80025cc:	687b      	ldr	r3, [r7, #4]
 80025ce:	69db      	ldr	r3, [r3, #28]
 80025d0:	4313      	orrs	r3, r2
 80025d2:	617b      	str	r3, [r7, #20]
 80025d4:	687b      	ldr	r3, [r7, #4]
 80025d6:	681b      	ldr	r3, [r3, #0]
 80025d8:	681b      	ldr	r3, [r3, #0]
 80025da:	4a8d      	ldr	r2, [pc, #564]	@ (8002810 <UART_SetConfig+0x264>)
 80025dc:	4013      	ands	r3, r2
 80025de:	0019      	movs	r1, r3
 80025e0:	687b      	ldr	r3, [r7, #4]
 80025e2:	681b      	ldr	r3, [r3, #0]
 80025e4:	697a      	ldr	r2, [r7, #20]
 80025e6:	430a      	orrs	r2, r1
 80025e8:	601a      	str	r2, [r3, #0]
 80025ea:	687b      	ldr	r3, [r7, #4]
 80025ec:	681b      	ldr	r3, [r3, #0]
 80025ee:	685b      	ldr	r3, [r3, #4]
 80025f0:	4a88      	ldr	r2, [pc, #544]	@ (8002814 <UART_SetConfig+0x268>)
 80025f2:	4013      	ands	r3, r2
 80025f4:	0019      	movs	r1, r3
 80025f6:	687b      	ldr	r3, [r7, #4]
 80025f8:	68da      	ldr	r2, [r3, #12]
 80025fa:	687b      	ldr	r3, [r7, #4]
 80025fc:	681b      	ldr	r3, [r3, #0]
 80025fe:	430a      	orrs	r2, r1
 8002600:	605a      	str	r2, [r3, #4]
 8002602:	687b      	ldr	r3, [r7, #4]
 8002604:	699b      	ldr	r3, [r3, #24]
 8002606:	617b      	str	r3, [r7, #20]
 8002608:	687b      	ldr	r3, [r7, #4]
 800260a:	6a1b      	ldr	r3, [r3, #32]
 800260c:	697a      	ldr	r2, [r7, #20]
 800260e:	4313      	orrs	r3, r2
 8002610:	617b      	str	r3, [r7, #20]
 8002612:	687b      	ldr	r3, [r7, #4]
 8002614:	681b      	ldr	r3, [r3, #0]
 8002616:	689b      	ldr	r3, [r3, #8]
 8002618:	4a7f      	ldr	r2, [pc, #508]	@ (8002818 <UART_SetConfig+0x26c>)
 800261a:	4013      	ands	r3, r2
 800261c:	0019      	movs	r1, r3
 800261e:	687b      	ldr	r3, [r7, #4]
 8002620:	681b      	ldr	r3, [r3, #0]
 8002622:	697a      	ldr	r2, [r7, #20]
 8002624:	430a      	orrs	r2, r1
 8002626:	609a      	str	r2, [r3, #8]
 8002628:	687b      	ldr	r3, [r7, #4]
 800262a:	681b      	ldr	r3, [r3, #0]
 800262c:	4a7b      	ldr	r2, [pc, #492]	@ (800281c <UART_SetConfig+0x270>)
 800262e:	4293      	cmp	r3, r2
 8002630:	d127      	bne.n	8002682 <UART_SetConfig+0xd6>
 8002632:	4b7b      	ldr	r3, [pc, #492]	@ (8002820 <UART_SetConfig+0x274>)
 8002634:	6b1b      	ldr	r3, [r3, #48]	@ 0x30
 8002636:	2203      	movs	r2, #3
 8002638:	4013      	ands	r3, r2
 800263a:	2b03      	cmp	r3, #3
 800263c:	d00d      	beq.n	800265a <UART_SetConfig+0xae>
 800263e:	d81b      	bhi.n	8002678 <UART_SetConfig+0xcc>
 8002640:	2b02      	cmp	r3, #2
 8002642:	d014      	beq.n	800266e <UART_SetConfig+0xc2>
 8002644:	d818      	bhi.n	8002678 <UART_SetConfig+0xcc>
 8002646:	2b00      	cmp	r3, #0
 8002648:	d002      	beq.n	8002650 <UART_SetConfig+0xa4>
 800264a:	2b01      	cmp	r3, #1
 800264c:	d00a      	beq.n	8002664 <UART_SetConfig+0xb8>
 800264e:	e013      	b.n	8002678 <UART_SetConfig+0xcc>
 8002650:	231f      	movs	r3, #31
 8002652:	18fb      	adds	r3, r7, r3
 8002654:	2200      	movs	r2, #0
 8002656:	701a      	strb	r2, [r3, #0]
 8002658:	e021      	b.n	800269e <UART_SetConfig+0xf2>
 800265a:	231f      	movs	r3, #31
 800265c:	18fb      	adds	r3, r7, r3
 800265e:	2202      	movs	r2, #2
 8002660:	701a      	strb	r2, [r3, #0]
 8002662:	e01c      	b.n	800269e <UART_SetConfig+0xf2>
 8002664:	231f      	movs	r3, #31
 8002666:	18fb      	adds	r3, r7, r3
 8002668:	2204      	movs	r2, #4
 800266a:	701a      	strb	r2, [r3, #0]
 800266c:	e017      	b.n	800269e <UART_SetConfig+0xf2>
 800266e:	231f      	movs	r3, #31
 8002670:	18fb      	adds	r3, r7, r3
 8002672:	2208      	movs	r2, #8
 8002674:	701a      	strb	r2, [r3, #0]
 8002676:	e012      	b.n	800269e <UART_SetConfig+0xf2>
 8002678:	231f      	movs	r3, #31
 800267a:	18fb      	adds	r3, r7, r3
 800267c:	2210      	movs	r2, #16
 800267e:	701a      	strb	r2, [r3, #0]
 8002680:	e00d      	b.n	800269e <UART_SetConfig+0xf2>
 8002682:	687b      	ldr	r3, [r7, #4]
 8002684:	681b      	ldr	r3, [r3, #0]
 8002686:	4a67      	ldr	r2, [pc, #412]	@ (8002824 <UART_SetConfig+0x278>)
 8002688:	4293      	cmp	r3, r2
 800268a:	d104      	bne.n	8002696 <UART_SetConfig+0xea>
 800268c:	231f      	movs	r3, #31
 800268e:	18fb      	adds	r3, r7, r3
 8002690:	2200      	movs	r2, #0
 8002692:	701a      	strb	r2, [r3, #0]
 8002694:	e003      	b.n	800269e <UART_SetConfig+0xf2>
 8002696:	231f      	movs	r3, #31
 8002698:	18fb      	adds	r3, r7, r3
 800269a:	2210      	movs	r2, #16
 800269c:	701a      	strb	r2, [r3, #0]
 800269e:	687b      	ldr	r3, [r7, #4]
 80026a0:	69da      	ldr	r2, [r3, #28]
 80026a2:	2380      	movs	r3, #128	@ 0x80
 80026a4:	021b      	lsls	r3, r3, #8
 80026a6:	429a      	cmp	r2, r3
 80026a8:	d15c      	bne.n	8002764 <UART_SetConfig+0x1b8>
 80026aa:	231f      	movs	r3, #31
 80026ac:	18fb      	adds	r3, r7, r3
 80026ae:	781b      	ldrb	r3, [r3, #0]
 80026b0:	2b08      	cmp	r3, #8
 80026b2:	d015      	beq.n	80026e0 <UART_SetConfig+0x134>
 80026b4:	dc18      	bgt.n	80026e8 <UART_SetConfig+0x13c>
 80026b6:	2b04      	cmp	r3, #4
 80026b8:	d00d      	beq.n	80026d6 <UART_SetConfig+0x12a>
 80026ba:	dc15      	bgt.n	80026e8 <UART_SetConfig+0x13c>
 80026bc:	2b00      	cmp	r3, #0
 80026be:	d002      	beq.n	80026c6 <UART_SetConfig+0x11a>
 80026c0:	2b02      	cmp	r3, #2
 80026c2:	d005      	beq.n	80026d0 <UART_SetConfig+0x124>
 80026c4:	e010      	b.n	80026e8 <UART_SetConfig+0x13c>
 80026c6:	f7ff fa2f 	bl	8001b28 <HAL_RCC_GetPCLK1Freq>
 80026ca:	0003      	movs	r3, r0
 80026cc:	61bb      	str	r3, [r7, #24]
 80026ce:	e012      	b.n	80026f6 <UART_SetConfig+0x14a>
 80026d0:	4b55      	ldr	r3, [pc, #340]	@ (8002828 <UART_SetConfig+0x27c>)
 80026d2:	61bb      	str	r3, [r7, #24]
 80026d4:	e00f      	b.n	80026f6 <UART_SetConfig+0x14a>
 80026d6:	f7ff f9c7 	bl	8001a68 <HAL_RCC_GetSysClockFreq>
 80026da:	0003      	movs	r3, r0
 80026dc:	61bb      	str	r3, [r7, #24]
 80026de:	e00a      	b.n	80026f6 <UART_SetConfig+0x14a>
 80026e0:	2380      	movs	r3, #128	@ 0x80
 80026e2:	021b      	lsls	r3, r3, #8
 80026e4:	61bb      	str	r3, [r7, #24]
 80026e6:	e006      	b.n	80026f6 <UART_SetConfig+0x14a>
 80026e8:	2300      	movs	r3, #0
 80026ea:	61bb      	str	r3, [r7, #24]
 80026ec:	231e      	movs	r3, #30
 80026ee:	18fb      	adds	r3, r7, r3
 80026f0:	2201      	movs	r2, #1
 80026f2:	701a      	strb	r2, [r3, #0]
 80026f4:	46c0      	nop			@ (mov r8, r8)
 80026f6:	69bb      	ldr	r3, [r7, #24]
 80026f8:	2b00      	cmp	r3, #0
 80026fa:	d100      	bne.n	80026fe <UART_SetConfig+0x152>
 80026fc:	e07a      	b.n	80027f4 <UART_SetConfig+0x248>
 80026fe:	69bb      	ldr	r3, [r7, #24]
 8002700:	005a      	lsls	r2, r3, #1
 8002702:	687b      	ldr	r3, [r7, #4]
 8002704:	685b      	ldr	r3, [r3, #4]
 8002706:	085b      	lsrs	r3, r3, #1
 8002708:	18d2      	adds	r2, r2, r3
 800270a:	687b      	ldr	r3, [r7, #4]
 800270c:	685b      	ldr	r3, [r3, #4]
 800270e:	0019      	movs	r1, r3
 8002710:	0010      	movs	r0, r2
 8002712:	f7fd fcf9 	bl	8000108 <__udivsi3>
 8002716:	0003      	movs	r3, r0
 8002718:	613b      	str	r3, [r7, #16]
 800271a:	693b      	ldr	r3, [r7, #16]
 800271c:	2b0f      	cmp	r3, #15
 800271e:	d91c      	bls.n	800275a <UART_SetConfig+0x1ae>
 8002720:	693a      	ldr	r2, [r7, #16]
 8002722:	2380      	movs	r3, #128	@ 0x80
 8002724:	025b      	lsls	r3, r3, #9
 8002726:	429a      	cmp	r2, r3
 8002728:	d217      	bcs.n	800275a <UART_SetConfig+0x1ae>
 800272a:	693b      	ldr	r3, [r7, #16]
 800272c:	b29a      	uxth	r2, r3
 800272e:	200e      	movs	r0, #14
 8002730:	183b      	adds	r3, r7, r0
 8002732:	210f      	movs	r1, #15
 8002734:	438a      	bics	r2, r1
 8002736:	801a      	strh	r2, [r3, #0]
 8002738:	693b      	ldr	r3, [r7, #16]
 800273a:	085b      	lsrs	r3, r3, #1
 800273c:	b29b      	uxth	r3, r3
 800273e:	2207      	movs	r2, #7
 8002740:	4013      	ands	r3, r2
 8002742:	b299      	uxth	r1, r3
 8002744:	183b      	adds	r3, r7, r0
 8002746:	183a      	adds	r2, r7, r0
 8002748:	8812      	ldrh	r2, [r2, #0]
 800274a:	430a      	orrs	r2, r1
 800274c:	801a      	strh	r2, [r3, #0]
 800274e:	687b      	ldr	r3, [r7, #4]
 8002750:	681b      	ldr	r3, [r3, #0]
 8002752:	183a      	adds	r2, r7, r0
 8002754:	8812      	ldrh	r2, [r2, #0]
 8002756:	60da      	str	r2, [r3, #12]
 8002758:	e04c      	b.n	80027f4 <UART_SetConfig+0x248>
 800275a:	231e      	movs	r3, #30
 800275c:	18fb      	adds	r3, r7, r3
 800275e:	2201      	movs	r2, #1
 8002760:	701a      	strb	r2, [r3, #0]
 8002762:	e047      	b.n	80027f4 <UART_SetConfig+0x248>
 8002764:	231f      	movs	r3, #31
 8002766:	18fb      	adds	r3, r7, r3
 8002768:	781b      	ldrb	r3, [r3, #0]
 800276a:	2b08      	cmp	r3, #8
 800276c:	d015      	beq.n	800279a <UART_SetConfig+0x1ee>
 800276e:	dc18      	bgt.n	80027a2 <UART_SetConfig+0x1f6>
 8002770:	2b04      	cmp	r3, #4
 8002772:	d00d      	beq.n	8002790 <UART_SetConfig+0x1e4>
 8002774:	dc15      	bgt.n	80027a2 <UART_SetConfig+0x1f6>
 8002776:	2b00      	cmp	r3, #0
 8002778:	d002      	beq.n	8002780 <UART_SetConfig+0x1d4>
 800277a:	2b02      	cmp	r3, #2
 800277c:	d005      	beq.n	800278a <UART_SetConfig+0x1de>
 800277e:	e010      	b.n	80027a2 <UART_SetConfig+0x1f6>
 8002780:	f7ff f9d2 	bl	8001b28 <HAL_RCC_GetPCLK1Freq>
 8002784:	0003      	movs	r3, r0
 8002786:	61bb      	str	r3, [r7, #24]
 8002788:	e012      	b.n	80027b0 <UART_SetConfig+0x204>
 800278a:	4b27      	ldr	r3, [pc, #156]	@ (8002828 <UART_SetConfig+0x27c>)
 800278c:	61bb      	str	r3, [r7, #24]
 800278e:	e00f      	b.n	80027b0 <UART_SetConfig+0x204>
 8002790:	f7ff f96a 	bl	8001a68 <HAL_RCC_GetSysClockFreq>
 8002794:	0003      	movs	r3, r0
 8002796:	61bb      	str	r3, [r7, #24]
 8002798:	e00a      	b.n	80027b0 <UART_SetConfig+0x204>
 800279a:	2380      	movs	r3, #128	@ 0x80
 800279c:	021b      	lsls	r3, r3, #8
 800279e:	61bb      	str	r3, [r7, #24]
 80027a0:	e006      	b.n	80027b0 <UART_SetConfig+0x204>
 80027a2:	2300      	movs	r3, #0
 80027a4:	61bb      	str	r3, [r7, #24]
 80027a6:	231e      	movs	r3, #30
 80027a8:	18fb      	adds	r3, r7, r3
 80027aa:	2201      	movs	r2, #1
 80027ac:	701a      	strb	r2, [r3, #0]
 80027ae:	46c0      	nop			@ (mov r8, r8)
 80027b0:	69bb      	ldr	r3, [r7, #24]
 80027b2:	2b00      	cmp	r3, #0
 80027b4:	d01e      	beq.n	80027f4 <UART_SetConfig+0x248>
 80027b6:	687b      	ldr	r3, [r7, #4]
 80027b8:	685b      	ldr	r3, [r3, #4]
 80027ba:	085a      	lsrs	r2, r3, #1
 80027bc:	69bb      	ldr	r3, [r7, #24]
 80027be:	18d2      	adds	r2, r2, r3
 80027c0:	687b      	ldr	r3, [r7, #4]
 80027c2:	685b      	ldr	r3, [r3, #4]
 80027c4:	0019      	movs	r1, r3
 80027c6:	0010      	movs	r0, r2
 80027c8:	f7fd fc9e 	bl	8000108 <__udivsi3>
 80027cc:	0003      	movs	r3, r0
 80027ce:	613b      	str	r3, [r7, #16]
 80027d0:	693b      	ldr	r3, [r7, #16]
 80027d2:	2b0f      	cmp	r3, #15
 80027d4:	d90a      	bls.n	80027ec <UART_SetConfig+0x240>
 80027d6:	693a      	ldr	r2, [r7, #16]
 80027d8:	2380      	movs	r3, #128	@ 0x80
 80027da:	025b      	lsls	r3, r3, #9
 80027dc:	429a      	cmp	r2, r3
 80027de:	d205      	bcs.n	80027ec <UART_SetConfig+0x240>
 80027e0:	693b      	ldr	r3, [r7, #16]
 80027e2:	b29a      	uxth	r2, r3
 80027e4:	687b      	ldr	r3, [r7, #4]
 80027e6:	681b      	ldr	r3, [r3, #0]
 80027e8:	60da      	str	r2, [r3, #12]
 80027ea:	e003      	b.n	80027f4 <UART_SetConfig+0x248>
 80027ec:	231e      	movs	r3, #30
 80027ee:	18fb      	adds	r3, r7, r3
 80027f0:	2201      	movs	r2, #1
 80027f2:	701a      	strb	r2, [r3, #0]
 80027f4:	687b      	ldr	r3, [r7, #4]
 80027f6:	2200      	movs	r2, #0
 80027f8:	669a      	str	r2, [r3, #104]	@ 0x68
 80027fa:	687b      	ldr	r3, [r7, #4]
 80027fc:	2200      	movs	r2, #0
 80027fe:	66da      	str	r2, [r3, #108]	@ 0x6c
 8002800:	231e      	movs	r3, #30
 8002802:	18fb      	adds	r3, r7, r3
 8002804:	781b      	ldrb	r3, [r3, #0]
 8002806:	0018      	movs	r0, r3
 8002808:	46bd      	mov	sp, r7
 800280a:	b008      	add	sp, #32
 800280c:	bd80      	pop	{r7, pc}
 800280e:	46c0      	nop			@ (mov r8, r8)
 8002810:	ffff69f3 	.word	0xffff69f3
 8002814:	ffffcfff 	.word	0xffffcfff
 8002818:	fffff4ff 	.word	0xfffff4ff
 800281c:	40013800 	.word	0x40013800
 8002820:	40021000 	.word	0x40021000
 8002824:	40004400 	.word	0x40004400
 8002828:	007a1200 	.word	0x007a1200

0800282c <UART_AdvFeatureConfig>:
 800282c:	b580      	push	{r7, lr}
 800282e:	b082      	sub	sp, #8
 8002830:	af00      	add	r7, sp, #0
 8002832:	6078      	str	r0, [r7, #4]
 8002834:	687b      	ldr	r3, [r7, #4]
 8002836:	6a5b      	ldr	r3, [r3, #36]	@ 0x24
 8002838:	2208      	movs	r2, #8
 800283a:	4013      	ands	r3, r2
 800283c:	d00b      	beq.n	8002856 <UART_AdvFeatureConfig+0x2a>
 800283e:	687b      	ldr	r3, [r7, #4]
 8002840:	681b      	ldr	r3, [r3, #0]
 8002842:	685b      	ldr	r3, [r3, #4]
 8002844:	4a4a      	ldr	r2, [pc, #296]	@ (8002970 <UART_AdvFeatureConfig+0x144>)
 8002846:	4013      	ands	r3, r2
 8002848:	0019      	movs	r1, r3
 800284a:	687b      	ldr	r3, [r7, #4]
 800284c:	6b5a      	ldr	r2, [r3, #52]	@ 0x34
 800284e:	687b      	ldr	r3, [r7, #4]
 8002850:	681b      	ldr	r3, [r3, #0]
 8002852:	430a      	orrs	r2, r1
 8002854:	605a      	str	r2, [r3, #4]
 8002856:	687b      	ldr	r3, [r7, #4]
 8002858:	6a5b      	ldr	r3, [r3, #36]	@ 0x24
 800285a:	2201      	movs	r2, #1
 800285c:	4013      	ands	r3, r2
 800285e:	d00b      	beq.n	8002878 <UART_AdvFeatureConfig+0x4c>
 8002860:	687b      	ldr	r3, [r7, #4]
 8002862:	681b      	ldr	r3, [r3, #0]
 8002864:	685b      	ldr	r3, [r3, #4]
 8002866:	4a43      	ldr	r2, [pc, #268]	@ (8002974 <UART_AdvFeatureConfig+0x148>)
 8002868:	4013      	ands	r3, r2
 800286a:	0019      	movs	r1, r3
 800286c:	687b      	ldr	r3, [r7, #4]
 800286e:	6a9a      	ldr	r2, [r3, #40]	@ 0x28
 8002870:	687b      	ldr	r3, [r7, #4]
 8002872:	681b      	ldr	r3, [r3, #0]
 8002874:	430a      	orrs	r2, r1
 8002876:	605a      	str	r2, [r3, #4]
 8002878:	687b      	ldr	r3, [r7, #4]
 800287a:	6a5b      	ldr	r3, [r3, #36]	@ 0x24
 800287c:	2202      	movs	r2, #2
 800287e:	4013      	ands	r3, r2
 8002880:	d00b      	beq.n	800289a <UART_AdvFeatureConfig+0x6e>
 8002882:	687b      	ldr	r3, [r7, #4]
 8002884:	681b      	ldr	r3, [r3, #0]
 8002886:	685b      	ldr	r3, [r3, #4]
 8002888:	4a3b      	ldr	r2, [pc, #236]	@ (8002978 <UART_AdvFeatureConfig+0x14c>)
 800288a:	4013      	ands	r3, r2
 800288c:	0019      	movs	r1, r3
 800288e:	687b      	ldr	r3, [r7, #4]
 8002890:	6ada      	ldr	r2, [r3, #44]	@ 0x2c
 8002892:	687b      	ldr	r3, [r7, #4]
 8002894:	681b      	ldr	r3, [r3, #0]
 8002896:	430a      	orrs	r2, r1
 8002898:	605a      	str	r2, [r3, #4]
 800289a:	687b      	ldr	r3, [r7, #4]
 800289c:	6a5b      	ldr	r3, [r3, #36]	@ 0x24
 800289e:	2204      	movs	r2, #4
 80028a0:	4013      	ands	r3, r2
 80028a2:	d00b      	beq.n	80028bc <UART_AdvFeatureConfig+0x90>
 80028a4:	687b      	ldr	r3, [r7, #4]
 80028a6:	681b      	ldr	r3, [r3, #0]
 80028a8:	685b      	ldr	r3, [r3, #4]
 80028aa:	4a34      	ldr	r2, [pc, #208]	@ (800297c <UART_AdvFeatureConfig+0x150>)
 80028ac:	4013      	ands	r3, r2
 80028ae:	0019      	movs	r1, r3
 80028b0:	687b      	ldr	r3, [r7, #4]
 80028b2:	6b1a      	ldr	r2, [r3, #48]	@ 0x30
 80028b4:	687b      	ldr	r3, [r7, #4]
 80028b6:	681b      	ldr	r3, [r3, #0]
 80028b8:	430a      	orrs	r2, r1
 80028ba:	605a      	str	r2, [r3, #4]
 80028bc:	687b      	ldr	r3, [r7, #4]
 80028be:	6a5b      	ldr	r3, [r3, #36]	@ 0x24
 80028c0:	2210      	movs	r2, #16
 80028c2:	4013      	ands	r3, r2
 80028c4:	d00b      	beq.n	80028de <UART_AdvFeatureConfig+0xb2>
 80028c6:	687b      	ldr	r3, [r7, #4]
 80028c8:	681b      	ldr	r3, [r3, #0]
 80028ca:	689b      	ldr	r3, [r3, #8]
 80028cc:	4a2c      	ldr	r2, [pc, #176]	@ (8002980 <UART_AdvFeatureConfig+0x154>)
 80028ce:	4013      	ands	r3, r2
 80028d0:	0019      	movs	r1, r3
 80028d2:	687b      	ldr	r3, [r7, #4]
 80028d4:	6b9a      	ldr	r2, [r3, #56]	@ 0x38
 80028d6:	687b      	ldr	r3, [r7, #4]
 80028d8:	681b      	ldr	r3, [r3, #0]
 80028da:	430a      	orrs	r2, r1
 80028dc:	609a      	str	r2, [r3, #8]
 80028de:	687b      	ldr	r3, [r7, #4]
 80028e0:	6a5b      	ldr	r3, [r3, #36]	@ 0x24
 80028e2:	2220      	movs	r2, #32
 80028e4:	4013      	ands	r3, r2
 80028e6:	d00b      	beq.n	8002900 <UART_AdvFeatureConfig+0xd4>
 80028e8:	687b      	ldr	r3, [r7, #4]
 80028ea:	681b      	ldr	r3, [r3, #0]
 80028ec:	689b      	ldr	r3, [r3, #8]
 80028ee:	4a25      	ldr	r2, [pc, #148]	@ (8002984 <UART_AdvFeatureConfig+0x158>)
 80028f0:	4013      	ands	r3, r2
 80028f2:	0019      	movs	r1, r3
 80028f4:	687b      	ldr	r3, [r7, #4]
 80028f6:	6bda      	ldr	r2, [r3, #60]	@ 0x3c
 80028f8:	687b      	ldr	r3, [r7, #4]
 80028fa:	681b      	ldr	r3, [r3, #0]
 80028fc:	430a      	orrs	r2, r1
 80028fe:	609a      	str	r2, [r3, #8]
 8002900:	687b      	ldr	r3, [r7, #4]
 8002902:	6a5b      	ldr	r3, [r3, #36]	@ 0x24
 8002904:	2240      	movs	r2, #64	@ 0x40
 8002906:	4013      	ands	r3, r2
 8002908:	d01d      	beq.n	8002946 <UART_AdvFeatureConfig+0x11a>
 800290a:	687b      	ldr	r3, [r7, #4]
 800290c:	681b      	ldr	r3, [r3, #0]
 800290e:	685b      	ldr	r3, [r3, #4]
 8002910:	4a1d      	ldr	r2, [pc, #116]	@ (8002988 <UART_AdvFeatureConfig+0x15c>)
 8002912:	4013      	ands	r3, r2
 8002914:	0019      	movs	r1, r3
 8002916:	687b      	ldr	r3, [r7, #4]
 8002918:	6c1a      	ldr	r2, [r3, #64]	@ 0x40
 800291a:	687b      	ldr	r3, [r7, #4]
 800291c:	681b      	ldr	r3, [r3, #0]
 800291e:	430a      	orrs	r2, r1
 8002920:	605a      	str	r2, [r3, #4]
 8002922:	687b      	ldr	r3, [r7, #4]
 8002924:	6c1a      	ldr	r2, [r3, #64]	@ 0x40
 8002926:	2380      	movs	r3, #128	@ 0x80
 8002928:	035b      	lsls	r3, r3, #13
 800292a:	429a      	cmp	r2, r3
 800292c:	d10b      	bne.n	8002946 <UART_AdvFeatureConfig+0x11a>
 800292e:	687b      	ldr	r3, [r7, #4]
 8002930:	681b      	ldr	r3, [r3, #0]
 8002932:	685b      	ldr	r3, [r3, #4]
 8002934:	4a15      	ldr	r2, [pc, #84]	@ (800298c <UART_AdvFeatureConfig+0x160>)
 8002936:	4013      	ands	r3, r2
 8002938:	0019      	movs	r1, r3
 800293a:	687b      	ldr	r3, [r7, #4]
 800293c:	6c5a      	ldr	r2, [r3, #68]	@ 0x44
 800293e:	687b      	ldr	r3, [r7, #4]
 8002940:	681b      	ldr	r3, [r3, #0]
 8002942:	430a      	orrs	r2, r1
 8002944:	605a      	str	r2, [r3, #4]
 8002946:	687b      	ldr	r3, [r7, #4]
 8002948:	6a5b      	ldr	r3, [r3, #36]	@ 0x24
 800294a:	2280      	movs	r2, #128	@ 0x80
 800294c:	4013      	ands	r3, r2
 800294e:	d00b      	beq.n	8002968 <UART_AdvFeatureConfig+0x13c>
 8002950:	687b      	ldr	r3, [r7, #4]
 8002952:	681b      	ldr	r3, [r3, #0]
 8002954:	685b      	ldr	r3, [r3, #4]
 8002956:	4a0e      	ldr	r2, [pc, #56]	@ (8002990 <UART_AdvFeatureConfig+0x164>)
 8002958:	4013      	ands	r3, r2
 800295a:	0019      	movs	r1, r3
 800295c:	687b      	ldr	r3, [r7, #4]
 800295e:	6c9a      	ldr	r2, [r3, #72]	@ 0x48
 8002960:	687b      	ldr	r3, [r7, #4]
 8002962:	681b      	ldr	r3, [r3, #0]
 8002964:	430a      	orrs	r2, r1
 8002966:	605a      	str	r2, [r3, #4]
 8002968:	46c0      	nop			@ (mov r8, r8)
 800296a:	46bd      	mov	sp, r7
 800296c:	b002      	add	sp, #8
 800296e:	bd80      	pop	{r7, pc}
 8002970:	ffff7fff 	.word	0xffff7fff
 8002974:	fffdffff 	.word	0xfffdffff
 8002978:	fffeffff 	.word	0xfffeffff
 800297c:	fffbffff 	.word	0xfffbffff
 8002980:	ffffefff 	.word	0xffffefff
 8002984:	ffffdfff 	.word	0xffffdfff
 8002988:	ffefffff 	.word	0xffefffff
 800298c:	ff9fffff 	.word	0xff9fffff
 8002990:	fff7ffff 	.word	0xfff7ffff

08002994 <UART_CheckIdleState>:
 8002994:	b580      	push	{r7, lr}
 8002996:	b092      	sub	sp, #72	@ 0x48
 8002998:	af02      	add	r7, sp, #8
 800299a:	6078      	str	r0, [r7, #4]
 800299c:	687b      	ldr	r3, [r7, #4]
 800299e:	2284      	movs	r2, #132	@ 0x84
 80029a0:	2100      	movs	r1, #0
 80029a2:	5099      	str	r1, [r3, r2]
 80029a4:	f7fd ffec 	bl	8000980 <HAL_GetTick>
 80029a8:	0003      	movs	r3, r0
 80029aa:	63fb      	str	r3, [r7, #60]	@ 0x3c
 80029ac:	687b      	ldr	r3, [r7, #4]
 80029ae:	681b      	ldr	r3, [r3, #0]
 80029b0:	681b      	ldr	r3, [r3, #0]
 80029b2:	2208      	movs	r2, #8
 80029b4:	4013      	ands	r3, r2
 80029b6:	2b08      	cmp	r3, #8
 80029b8:	d12c      	bne.n	8002a14 <UART_CheckIdleState+0x80>
 80029ba:	6bfb      	ldr	r3, [r7, #60]	@ 0x3c
 80029bc:	2280      	movs	r2, #128	@ 0x80
 80029be:	0391      	lsls	r1, r2, #14
 80029c0:	6878      	ldr	r0, [r7, #4]
 80029c2:	4a46      	ldr	r2, [pc, #280]	@ (8002adc <UART_CheckIdleState+0x148>)
 80029c4:	9200      	str	r2, [sp, #0]
 80029c6:	2200      	movs	r2, #0
 80029c8:	f000 f88c 	bl	8002ae4 <UART_WaitOnFlagUntilTimeout>
 80029cc:	1e03      	subs	r3, r0, #0
 80029ce:	d021      	beq.n	8002a14 <UART_CheckIdleState+0x80>
 80029d0:	f3ef 8310 	mrs	r3, PRIMASK
 80029d4:	627b      	str	r3, [r7, #36]	@ 0x24
 80029d6:	6a7b      	ldr	r3, [r7, #36]	@ 0x24
 80029d8:	63bb      	str	r3, [r7, #56]	@ 0x38
 80029da:	2301      	movs	r3, #1
 80029dc:	62bb      	str	r3, [r7, #40]	@ 0x28
 80029de:	6abb      	ldr	r3, [r7, #40]	@ 0x28
 80029e0:	f383 8810 	msr	PRIMASK, r3
 80029e4:	46c0      	nop			@ (mov r8, r8)
 80029e6:	687b      	ldr	r3, [r7, #4]
 80029e8:	681b      	ldr	r3, [r3, #0]
 80029ea:	681a      	ldr	r2, [r3, #0]
 80029ec:	687b      	ldr	r3, [r7, #4]
 80029ee:	681b      	ldr	r3, [r3, #0]
 80029f0:	2180      	movs	r1, #128	@ 0x80
 80029f2:	438a      	bics	r2, r1
 80029f4:	601a      	str	r2, [r3, #0]
 80029f6:	6bbb      	ldr	r3, [r7, #56]	@ 0x38
 80029f8:	62fb      	str	r3, [r7, #44]	@ 0x2c
 80029fa:	6afb      	ldr	r3, [r7, #44]	@ 0x2c
 80029fc:	f383 8810 	msr	PRIMASK, r3
 8002a00:	46c0      	nop			@ (mov r8, r8)
 8002a02:	687b      	ldr	r3, [r7, #4]
 8002a04:	2220      	movs	r2, #32
 8002a06:	67da      	str	r2, [r3, #124]	@ 0x7c
 8002a08:	687b      	ldr	r3, [r7, #4]
 8002a0a:	2278      	movs	r2, #120	@ 0x78
 8002a0c:	2100      	movs	r1, #0
 8002a0e:	5499      	strb	r1, [r3, r2]
 8002a10:	2303      	movs	r3, #3
 8002a12:	e05f      	b.n	8002ad4 <UART_CheckIdleState+0x140>
 8002a14:	687b      	ldr	r3, [r7, #4]
 8002a16:	681b      	ldr	r3, [r3, #0]
 8002a18:	681b      	ldr	r3, [r3, #0]
 8002a1a:	2204      	movs	r2, #4
 8002a1c:	4013      	ands	r3, r2
 8002a1e:	2b04      	cmp	r3, #4
 8002a20:	d146      	bne.n	8002ab0 <UART_CheckIdleState+0x11c>
 8002a22:	6bfb      	ldr	r3, [r7, #60]	@ 0x3c
 8002a24:	2280      	movs	r2, #128	@ 0x80
 8002a26:	03d1      	lsls	r1, r2, #15
 8002a28:	6878      	ldr	r0, [r7, #4]
 8002a2a:	4a2c      	ldr	r2, [pc, #176]	@ (8002adc <UART_CheckIdleState+0x148>)
 8002a2c:	9200      	str	r2, [sp, #0]
 8002a2e:	2200      	movs	r2, #0
 8002a30:	f000 f858 	bl	8002ae4 <UART_WaitOnFlagUntilTimeout>
 8002a34:	1e03      	subs	r3, r0, #0
 8002a36:	d03b      	beq.n	8002ab0 <UART_CheckIdleState+0x11c>
 8002a38:	f3ef 8310 	mrs	r3, PRIMASK
 8002a3c:	60fb      	str	r3, [r7, #12]
 8002a3e:	68fb      	ldr	r3, [r7, #12]
 8002a40:	637b      	str	r3, [r7, #52]	@ 0x34
 8002a42:	2301      	movs	r3, #1
 8002a44:	613b      	str	r3, [r7, #16]
 8002a46:	693b      	ldr	r3, [r7, #16]
 8002a48:	f383 8810 	msr	PRIMASK, r3
 8002a4c:	46c0      	nop			@ (mov r8, r8)
 8002a4e:	687b      	ldr	r3, [r7, #4]
 8002a50:	681b      	ldr	r3, [r3, #0]
 8002a52:	681a      	ldr	r2, [r3, #0]
 8002a54:	687b      	ldr	r3, [r7, #4]
 8002a56:	681b      	ldr	r3, [r3, #0]
 8002a58:	4921      	ldr	r1, [pc, #132]	@ (8002ae0 <UART_CheckIdleState+0x14c>)
 8002a5a:	400a      	ands	r2, r1
 8002a5c:	601a      	str	r2, [r3, #0]
 8002a5e:	6b7b      	ldr	r3, [r7, #52]	@ 0x34
 8002a60:	617b      	str	r3, [r7, #20]
 8002a62:	697b      	ldr	r3, [r7, #20]
 8002a64:	f383 8810 	msr	PRIMASK, r3
 8002a68:	46c0      	nop			@ (mov r8, r8)
 8002a6a:	f3ef 8310 	mrs	r3, PRIMASK
 8002a6e:	61bb      	str	r3, [r7, #24]
 8002a70:	69bb      	ldr	r3, [r7, #24]
 8002a72:	633b      	str	r3, [r7, #48]	@ 0x30
 8002a74:	2301      	movs	r3, #1
 8002a76:	61fb      	str	r3, [r7, #28]
 8002a78:	69fb      	ldr	r3, [r7, #28]
 8002a7a:	f383 8810 	msr	PRIMASK, r3
 8002a7e:	46c0      	nop			@ (mov r8, r8)
 8002a80:	687b      	ldr	r3, [r7, #4]
 8002a82:	681b      	ldr	r3, [r3, #0]
 8002a84:	689a      	ldr	r2, [r3, #8]
 8002a86:	687b      	ldr	r3, [r7, #4]
 8002a88:	681b      	ldr	r3, [r3, #0]
 8002a8a:	2101      	movs	r1, #1
 8002a8c:	438a      	bics	r2, r1
 8002a8e:	609a      	str	r2, [r3, #8]
 8002a90:	6b3b      	ldr	r3, [r7, #48]	@ 0x30
 8002a92:	623b      	str	r3, [r7, #32]
 8002a94:	6a3b      	ldr	r3, [r7, #32]
 8002a96:	f383 8810 	msr	PRIMASK, r3
 8002a9a:	46c0      	nop			@ (mov r8, r8)
 8002a9c:	687b      	ldr	r3, [r7, #4]
 8002a9e:	2280      	movs	r2, #128	@ 0x80
 8002aa0:	2120      	movs	r1, #32
 8002aa2:	5099      	str	r1, [r3, r2]
 8002aa4:	687b      	ldr	r3, [r7, #4]
 8002aa6:	2278      	movs	r2, #120	@ 0x78
 8002aa8:	2100      	movs	r1, #0
 8002aaa:	5499      	strb	r1, [r3, r2]
 8002aac:	2303      	movs	r3, #3
 8002aae:	e011      	b.n	8002ad4 <UART_CheckIdleState+0x140>
 8002ab0:	687b      	ldr	r3, [r7, #4]
 8002ab2:	2220      	movs	r2, #32
 8002ab4:	67da      	str	r2, [r3, #124]	@ 0x7c
 8002ab6:	687b      	ldr	r3, [r7, #4]
 8002ab8:	2280      	movs	r2, #128	@ 0x80
 8002aba:	2120      	movs	r1, #32
 8002abc:	5099      	str	r1, [r3, r2]
 8002abe:	687b      	ldr	r3, [r7, #4]
 8002ac0:	2200      	movs	r2, #0
 8002ac2:	661a      	str	r2, [r3, #96]	@ 0x60
 8002ac4:	687b      	ldr	r3, [r7, #4]
 8002ac6:	2200      	movs	r2, #0
 8002ac8:	665a      	str	r2, [r3, #100]	@ 0x64
 8002aca:	687b      	ldr	r3, [r7, #4]
 8002acc:	2278      	movs	r2, #120	@ 0x78
 8002ace:	2100      	movs	r1, #0
 8002ad0:	5499      	strb	r1, [r3, r2]
 8002ad2:	2300      	movs	r3, #0
 8002ad4:	0018      	movs	r0, r3
 8002ad6:	46bd      	mov	sp, r7
 8002ad8:	b010      	add	sp, #64	@ 0x40
 8002ada:	bd80      	pop	{r7, pc}
 8002adc:	01ffffff 	.word	0x01ffffff
 8002ae0:	fffffedf 	.word	0xfffffedf

08002ae4 <UART_WaitOnFlagUntilTimeout>:
 8002ae4:	b580      	push	{r7, lr}
 8002ae6:	b084      	sub	sp, #16
 8002ae8:	af00      	add	r7, sp, #0
 8002aea:	60f8      	str	r0, [r7, #12]
 8002aec:	60b9      	str	r1, [r7, #8]
 8002aee:	603b      	str	r3, [r7, #0]
 8002af0:	1dfb      	adds	r3, r7, #7
 8002af2:	701a      	strb	r2, [r3, #0]
 8002af4:	e051      	b.n	8002b9a <UART_WaitOnFlagUntilTimeout+0xb6>
 8002af6:	69bb      	ldr	r3, [r7, #24]
 8002af8:	3301      	adds	r3, #1
 8002afa:	d04e      	beq.n	8002b9a <UART_WaitOnFlagUntilTimeout+0xb6>
 8002afc:	f7fd ff40 	bl	8000980 <HAL_GetTick>
 8002b00:	0002      	movs	r2, r0
 8002b02:	683b      	ldr	r3, [r7, #0]
 8002b04:	1ad3      	subs	r3, r2, r3
 8002b06:	69ba      	ldr	r2, [r7, #24]
 8002b08:	429a      	cmp	r2, r3
 8002b0a:	d302      	bcc.n	8002b12 <UART_WaitOnFlagUntilTimeout+0x2e>
 8002b0c:	69bb      	ldr	r3, [r7, #24]
 8002b0e:	2b00      	cmp	r3, #0
 8002b10:	d101      	bne.n	8002b16 <UART_WaitOnFlagUntilTimeout+0x32>
 8002b12:	2303      	movs	r3, #3
 8002b14:	e051      	b.n	8002bba <UART_WaitOnFlagUntilTimeout+0xd6>
 8002b16:	68fb      	ldr	r3, [r7, #12]
 8002b18:	681b      	ldr	r3, [r3, #0]
 8002b1a:	681b      	ldr	r3, [r3, #0]
 8002b1c:	2204      	movs	r2, #4
 8002b1e:	4013      	ands	r3, r2
 8002b20:	d03b      	beq.n	8002b9a <UART_WaitOnFlagUntilTimeout+0xb6>
 8002b22:	68bb      	ldr	r3, [r7, #8]
 8002b24:	2b80      	cmp	r3, #128	@ 0x80
 8002b26:	d038      	beq.n	8002b9a <UART_WaitOnFlagUntilTimeout+0xb6>
 8002b28:	68bb      	ldr	r3, [r7, #8]
 8002b2a:	2b40      	cmp	r3, #64	@ 0x40
 8002b2c:	d035      	beq.n	8002b9a <UART_WaitOnFlagUntilTimeout+0xb6>
 8002b2e:	68fb      	ldr	r3, [r7, #12]
 8002b30:	681b      	ldr	r3, [r3, #0]
 8002b32:	69db      	ldr	r3, [r3, #28]
 8002b34:	2208      	movs	r2, #8
 8002b36:	4013      	ands	r3, r2
 8002b38:	2b08      	cmp	r3, #8
 8002b3a:	d111      	bne.n	8002b60 <UART_WaitOnFlagUntilTimeout+0x7c>
 8002b3c:	68fb      	ldr	r3, [r7, #12]
 8002b3e:	681b      	ldr	r3, [r3, #0]
 8002b40:	2208      	movs	r2, #8
 8002b42:	621a      	str	r2, [r3, #32]
 8002b44:	68fb      	ldr	r3, [r7, #12]
 8002b46:	0018      	movs	r0, r3
 8002b48:	f000 f900 	bl	8002d4c <UART_EndRxTransfer>
 8002b4c:	68fb      	ldr	r3, [r7, #12]
 8002b4e:	2284      	movs	r2, #132	@ 0x84
 8002b50:	2108      	movs	r1, #8
 8002b52:	5099      	str	r1, [r3, r2]
 8002b54:	68fb      	ldr	r3, [r7, #12]
 8002b56:	2278      	movs	r2, #120	@ 0x78
 8002b58:	2100      	movs	r1, #0
 8002b5a:	5499      	strb	r1, [r3, r2]
 8002b5c:	2301      	movs	r3, #1
 8002b5e:	e02c      	b.n	8002bba <UART_WaitOnFlagUntilTimeout+0xd6>
 8002b60:	68fb      	ldr	r3, [r7, #12]
 8002b62:	681b      	ldr	r3, [r3, #0]
 8002b64:	69da      	ldr	r2, [r3, #28]
 8002b66:	2380      	movs	r3, #128	@ 0x80
 8002b68:	011b      	lsls	r3, r3, #4
 8002b6a:	401a      	ands	r2, r3
 8002b6c:	2380      	movs	r3, #128	@ 0x80
 8002b6e:	011b      	lsls	r3, r3, #4
 8002b70:	429a      	cmp	r2, r3
 8002b72:	d112      	bne.n	8002b9a <UART_WaitOnFlagUntilTimeout+0xb6>
 8002b74:	68fb      	ldr	r3, [r7, #12]
 8002b76:	681b      	ldr	r3, [r3, #0]
 8002b78:	2280      	movs	r2, #128	@ 0x80
 8002b7a:	0112      	lsls	r2, r2, #4
 8002b7c:	621a      	str	r2, [r3, #32]
 8002b7e:	68fb      	ldr	r3, [r7, #12]
 8002b80:	0018      	movs	r0, r3
 8002b82:	f000 f8e3 	bl	8002d4c <UART_EndRxTransfer>
 8002b86:	68fb      	ldr	r3, [r7, #12]
 8002b88:	2284      	movs	r2, #132	@ 0x84
 8002b8a:	2120      	movs	r1, #32
 8002b8c:	5099      	str	r1, [r3, r2]
 8002b8e:	68fb      	ldr	r3, [r7, #12]
 8002b90:	2278      	movs	r2, #120	@ 0x78
 8002b92:	2100      	movs	r1, #0
 8002b94:	5499      	strb	r1, [r3, r2]
 8002b96:	2303      	movs	r3, #3
 8002b98:	e00f      	b.n	8002bba <UART_WaitOnFlagUntilTimeout+0xd6>
 8002b9a:	68fb      	ldr	r3, [r7, #12]
 8002b9c:	681b      	ldr	r3, [r3, #0]
 8002b9e:	69db      	ldr	r3, [r3, #28]
 8002ba0:	68ba      	ldr	r2, [r7, #8]
 8002ba2:	4013      	ands	r3, r2
 8002ba4:	68ba      	ldr	r2, [r7, #8]
 8002ba6:	1ad3      	subs	r3, r2, r3
 8002ba8:	425a      	negs	r2, r3
 8002baa:	4153      	adcs	r3, r2
 8002bac:	b2db      	uxtb	r3, r3
 8002bae:	001a      	movs	r2, r3
 8002bb0:	1dfb      	adds	r3, r7, #7
 8002bb2:	781b      	ldrb	r3, [r3, #0]
 8002bb4:	429a      	cmp	r2, r3
 8002bb6:	d09e      	beq.n	8002af6 <UART_WaitOnFlagUntilTimeout+0x12>
 8002bb8:	2300      	movs	r3, #0
 8002bba:	0018      	movs	r0, r3
 8002bbc:	46bd      	mov	sp, r7
 8002bbe:	b004      	add	sp, #16
 8002bc0:	bd80      	pop	{r7, pc}
	...

08002bc4 <UART_Start_Receive_DMA>:
 8002bc4:	b580      	push	{r7, lr}
 8002bc6:	b090      	sub	sp, #64	@ 0x40
 8002bc8:	af00      	add	r7, sp, #0
 8002bca:	60f8      	str	r0, [r7, #12]
 8002bcc:	60b9      	str	r1, [r7, #8]
 8002bce:	1dbb      	adds	r3, r7, #6
 8002bd0:	801a      	strh	r2, [r3, #0]
 8002bd2:	68fb      	ldr	r3, [r7, #12]
 8002bd4:	68ba      	ldr	r2, [r7, #8]
 8002bd6:	655a      	str	r2, [r3, #84]	@ 0x54
 8002bd8:	68fb      	ldr	r3, [r7, #12]
 8002bda:	1dba      	adds	r2, r7, #6
 8002bdc:	2158      	movs	r1, #88	@ 0x58
 8002bde:	8812      	ldrh	r2, [r2, #0]
 8002be0:	525a      	strh	r2, [r3, r1]
 8002be2:	68fb      	ldr	r3, [r7, #12]
 8002be4:	2284      	movs	r2, #132	@ 0x84
 8002be6:	2100      	movs	r1, #0
 8002be8:	5099      	str	r1, [r3, r2]
 8002bea:	68fb      	ldr	r3, [r7, #12]
 8002bec:	2280      	movs	r2, #128	@ 0x80
 8002bee:	2122      	movs	r1, #34	@ 0x22
 8002bf0:	5099      	str	r1, [r3, r2]
 8002bf2:	68fb      	ldr	r3, [r7, #12]
 8002bf4:	6f5b      	ldr	r3, [r3, #116]	@ 0x74
 8002bf6:	2b00      	cmp	r3, #0
 8002bf8:	d028      	beq.n	8002c4c <UART_Start_Receive_DMA+0x88>
 8002bfa:	68fb      	ldr	r3, [r7, #12]
 8002bfc:	6f5b      	ldr	r3, [r3, #116]	@ 0x74
 8002bfe:	4a3e      	ldr	r2, [pc, #248]	@ (8002cf8 <UART_Start_Receive_DMA+0x134>)
 8002c00:	629a      	str	r2, [r3, #40]	@ 0x28
 8002c02:	68fb      	ldr	r3, [r7, #12]
 8002c04:	6f5b      	ldr	r3, [r3, #116]	@ 0x74
 8002c06:	4a3d      	ldr	r2, [pc, #244]	@ (8002cfc <UART_Start_Receive_DMA+0x138>)
 8002c08:	62da      	str	r2, [r3, #44]	@ 0x2c
 8002c0a:	68fb      	ldr	r3, [r7, #12]
 8002c0c:	6f5b      	ldr	r3, [r3, #116]	@ 0x74
 8002c0e:	4a3c      	ldr	r2, [pc, #240]	@ (8002d00 <UART_Start_Receive_DMA+0x13c>)
 8002c10:	631a      	str	r2, [r3, #48]	@ 0x30
 8002c12:	68fb      	ldr	r3, [r7, #12]
 8002c14:	6f5b      	ldr	r3, [r3, #116]	@ 0x74
 8002c16:	2200      	movs	r2, #0
 8002c18:	635a      	str	r2, [r3, #52]	@ 0x34
 8002c1a:	68fb      	ldr	r3, [r7, #12]
 8002c1c:	6f58      	ldr	r0, [r3, #116]	@ 0x74
 8002c1e:	68fb      	ldr	r3, [r7, #12]
 8002c20:	681b      	ldr	r3, [r3, #0]
 8002c22:	3324      	adds	r3, #36	@ 0x24
 8002c24:	0019      	movs	r1, r3
 8002c26:	68fb      	ldr	r3, [r7, #12]
 8002c28:	6d5b      	ldr	r3, [r3, #84]	@ 0x54
 8002c2a:	001a      	movs	r2, r3
 8002c2c:	1dbb      	adds	r3, r7, #6
 8002c2e:	881b      	ldrh	r3, [r3, #0]
 8002c30:	f7fd ffd6 	bl	8000be0 <HAL_DMA_Start_IT>
 8002c34:	1e03      	subs	r3, r0, #0
 8002c36:	d009      	beq.n	8002c4c <UART_Start_Receive_DMA+0x88>
 8002c38:	68fb      	ldr	r3, [r7, #12]
 8002c3a:	2284      	movs	r2, #132	@ 0x84
 8002c3c:	2110      	movs	r1, #16
 8002c3e:	5099      	str	r1, [r3, r2]
 8002c40:	68fb      	ldr	r3, [r7, #12]
 8002c42:	2280      	movs	r2, #128	@ 0x80
 8002c44:	2120      	movs	r1, #32
 8002c46:	5099      	str	r1, [r3, r2]
 8002c48:	2301      	movs	r3, #1
 8002c4a:	e050      	b.n	8002cee <UART_Start_Receive_DMA+0x12a>
 8002c4c:	68fb      	ldr	r3, [r7, #12]
 8002c4e:	691b      	ldr	r3, [r3, #16]
 8002c50:	2b00      	cmp	r3, #0
 8002c52:	d019      	beq.n	8002c88 <UART_Start_Receive_DMA+0xc4>
 8002c54:	f3ef 8310 	mrs	r3, PRIMASK
 8002c58:	62bb      	str	r3, [r7, #40]	@ 0x28
 8002c5a:	6abb      	ldr	r3, [r7, #40]	@ 0x28
 8002c5c:	63fb      	str	r3, [r7, #60]	@ 0x3c
 8002c5e:	2301      	movs	r3, #1
 8002c60:	62fb      	str	r3, [r7, #44]	@ 0x2c
 8002c62:	6afb      	ldr	r3, [r7, #44]	@ 0x2c
 8002c64:	f383 8810 	msr	PRIMASK, r3
 8002c68:	46c0      	nop			@ (mov r8, r8)
 8002c6a:	68fb      	ldr	r3, [r7, #12]
 8002c6c:	681b      	ldr	r3, [r3, #0]
 8002c6e:	681a      	ldr	r2, [r3, #0]
 8002c70:	68fb      	ldr	r3, [r7, #12]
 8002c72:	681b      	ldr	r3, [r3, #0]
 8002c74:	2180      	movs	r1, #128	@ 0x80
 8002c76:	0049      	lsls	r1, r1, #1
 8002c78:	430a      	orrs	r2, r1
 8002c7a:	601a      	str	r2, [r3, #0]
 8002c7c:	6bfb      	ldr	r3, [r7, #60]	@ 0x3c
 8002c7e:	633b      	str	r3, [r7, #48]	@ 0x30
 8002c80:	6b3b      	ldr	r3, [r7, #48]	@ 0x30
 8002c82:	f383 8810 	msr	PRIMASK, r3
 8002c86:	46c0      	nop			@ (mov r8, r8)
 8002c88:	f3ef 8310 	mrs	r3, PRIMASK
 8002c8c:	613b      	str	r3, [r7, #16]
 8002c8e:	693b      	ldr	r3, [r7, #16]
 8002c90:	63bb      	str	r3, [r7, #56]	@ 0x38
 8002c92:	2301      	movs	r3, #1
 8002c94:	617b      	str	r3, [r7, #20]
 8002c96:	697b      	ldr	r3, [r7, #20]
 8002c98:	f383 8810 	msr	PRIMASK, r3
 8002c9c:	46c0      	nop			@ (mov r8, r8)
 8002c9e:	68fb      	ldr	r3, [r7, #12]
 8002ca0:	681b      	ldr	r3, [r3, #0]
 8002ca2:	689a      	ldr	r2, [r3, #8]
 8002ca4:	68fb      	ldr	r3, [r7, #12]
 8002ca6:	681b      	ldr	r3, [r3, #0]
 8002ca8:	2101      	movs	r1, #1
 8002caa:	430a      	orrs	r2, r1
 8002cac:	609a      	str	r2, [r3, #8]
 8002cae:	6bbb      	ldr	r3, [r7, #56]	@ 0x38
 8002cb0:	61bb      	str	r3, [r7, #24]
 8002cb2:	69bb      	ldr	r3, [r7, #24]
 8002cb4:	f383 8810 	msr	PRIMASK, r3
 8002cb8:	46c0      	nop			@ (mov r8, r8)
 8002cba:	f3ef 8310 	mrs	r3, PRIMASK
 8002cbe:	61fb      	str	r3, [r7, #28]
 8002cc0:	69fb      	ldr	r3, [r7, #28]
 8002cc2:	637b      	str	r3, [r7, #52]	@ 0x34
 8002cc4:	2301      	movs	r3, #1
 8002cc6:	623b      	str	r3, [r7, #32]
 8002cc8:	6a3b      	ldr	r3, [r7, #32]
 8002cca:	f383 8810 	msr	PRIMASK, r3
 8002cce:	46c0      	nop			@ (mov r8, r8)
 8002cd0:	68fb      	ldr	r3, [r7, #12]
 8002cd2:	681b      	ldr	r3, [r3, #0]
 8002cd4:	689a      	ldr	r2, [r3, #8]
 8002cd6:	68fb      	ldr	r3, [r7, #12]
 8002cd8:	681b      	ldr	r3, [r3, #0]
 8002cda:	2140      	movs	r1, #64	@ 0x40
 8002cdc:	430a      	orrs	r2, r1
 8002cde:	609a      	str	r2, [r3, #8]
 8002ce0:	6b7b      	ldr	r3, [r7, #52]	@ 0x34
 8002ce2:	627b      	str	r3, [r7, #36]	@ 0x24
 8002ce4:	6a7b      	ldr	r3, [r7, #36]	@ 0x24
 8002ce6:	f383 8810 	msr	PRIMASK, r3
 8002cea:	46c0      	nop			@ (mov r8, r8)
 8002cec:	2300      	movs	r3, #0
 8002cee:	0018      	movs	r0, r3
 8002cf0:	46bd      	mov	sp, r7
 8002cf2:	b010      	add	sp, #64	@ 0x40
 8002cf4:	bd80      	pop	{r7, pc}
 8002cf6:	46c0      	nop			@ (mov r8, r8)
 8002cf8:	08002e15 	.word	0x08002e15
 8002cfc:	08002f41 	.word	0x08002f41
 8002d00:	08002f83 	.word	0x08002f83

08002d04 <UART_EndTxTransfer>:
 8002d04:	b580      	push	{r7, lr}
 8002d06:	b086      	sub	sp, #24
 8002d08:	af00      	add	r7, sp, #0
 8002d0a:	6078      	str	r0, [r7, #4]
 8002d0c:	f3ef 8310 	mrs	r3, PRIMASK
 8002d10:	60bb      	str	r3, [r7, #8]
 8002d12:	68bb      	ldr	r3, [r7, #8]
 8002d14:	617b      	str	r3, [r7, #20]
 8002d16:	2301      	movs	r3, #1
 8002d18:	60fb      	str	r3, [r7, #12]
 8002d1a:	68fb      	ldr	r3, [r7, #12]
 8002d1c:	f383 8810 	msr	PRIMASK, r3
 8002d20:	46c0      	nop			@ (mov r8, r8)
 8002d22:	687b      	ldr	r3, [r7, #4]
 8002d24:	681b      	ldr	r3, [r3, #0]
 8002d26:	681a      	ldr	r2, [r3, #0]
 8002d28:	687b      	ldr	r3, [r7, #4]
 8002d2a:	681b      	ldr	r3, [r3, #0]
 8002d2c:	21c0      	movs	r1, #192	@ 0xc0
 8002d2e:	438a      	bics	r2, r1
 8002d30:	601a      	str	r2, [r3, #0]
 8002d32:	697b      	ldr	r3, [r7, #20]
 8002d34:	613b      	str	r3, [r7, #16]
 8002d36:	693b      	ldr	r3, [r7, #16]
 8002d38:	f383 8810 	msr	PRIMASK, r3
 8002d3c:	46c0      	nop			@ (mov r8, r8)
 8002d3e:	687b      	ldr	r3, [r7, #4]
 8002d40:	2220      	movs	r2, #32
 8002d42:	67da      	str	r2, [r3, #124]	@ 0x7c
 8002d44:	46c0      	nop			@ (mov r8, r8)
 8002d46:	46bd      	mov	sp, r7
 8002d48:	b006      	add	sp, #24
 8002d4a:	bd80      	pop	{r7, pc}

08002d4c <UART_EndRxTransfer>:
 8002d4c:	b580      	push	{r7, lr}
 8002d4e:	b08e      	sub	sp, #56	@ 0x38
 8002d50:	af00      	add	r7, sp, #0
 8002d52:	6078      	str	r0, [r7, #4]
 8002d54:	f3ef 8310 	mrs	r3, PRIMASK
 8002d58:	617b      	str	r3, [r7, #20]
 8002d5a:	697b      	ldr	r3, [r7, #20]
 8002d5c:	637b      	str	r3, [r7, #52]	@ 0x34
 8002d5e:	2301      	movs	r3, #1
 8002d60:	61bb      	str	r3, [r7, #24]
 8002d62:	69bb      	ldr	r3, [r7, #24]
 8002d64:	f383 8810 	msr	PRIMASK, r3
 8002d68:	46c0      	nop			@ (mov r8, r8)
 8002d6a:	687b      	ldr	r3, [r7, #4]
 8002d6c:	681b      	ldr	r3, [r3, #0]
 8002d6e:	681a      	ldr	r2, [r3, #0]
 8002d70:	687b      	ldr	r3, [r7, #4]
 8002d72:	681b      	ldr	r3, [r3, #0]
 8002d74:	4926      	ldr	r1, [pc, #152]	@ (8002e10 <UART_EndRxTransfer+0xc4>)
 8002d76:	400a      	ands	r2, r1
 8002d78:	601a      	str	r2, [r3, #0]
 8002d7a:	6b7b      	ldr	r3, [r7, #52]	@ 0x34
 8002d7c:	61fb      	str	r3, [r7, #28]
 8002d7e:	69fb      	ldr	r3, [r7, #28]
 8002d80:	f383 8810 	msr	PRIMASK, r3
 8002d84:	46c0      	nop			@ (mov r8, r8)
 8002d86:	f3ef 8310 	mrs	r3, PRIMASK
 8002d8a:	623b      	str	r3, [r7, #32]
 8002d8c:	6a3b      	ldr	r3, [r7, #32]
 8002d8e:	633b      	str	r3, [r7, #48]	@ 0x30
 8002d90:	2301      	movs	r3, #1
 8002d92:	627b      	str	r3, [r7, #36]	@ 0x24
 8002d94:	6a7b      	ldr	r3, [r7, #36]	@ 0x24
 8002d96:	f383 8810 	msr	PRIMASK, r3
 8002d9a:	46c0      	nop			@ (mov r8, r8)
 8002d9c:	687b      	ldr	r3, [r7, #4]
 8002d9e:	681b      	ldr	r3, [r3, #0]
 8002da0:	689a      	ldr	r2, [r3, #8]
 8002da2:	687b      	ldr	r3, [r7, #4]
 8002da4:	681b      	ldr	r3, [r3, #0]
 8002da6:	2101      	movs	r1, #1
 8002da8:	438a      	bics	r2, r1
 8002daa:	609a      	str	r2, [r3, #8]
 8002dac:	6b3b      	ldr	r3, [r7, #48]	@ 0x30
 8002dae:	62bb      	str	r3, [r7, #40]	@ 0x28
 8002db0:	6abb      	ldr	r3, [r7, #40]	@ 0x28
 8002db2:	f383 8810 	msr	PRIMASK, r3
 8002db6:	46c0      	nop			@ (mov r8, r8)
 8002db8:	687b      	ldr	r3, [r7, #4]
 8002dba:	6e1b      	ldr	r3, [r3, #96]	@ 0x60
 8002dbc:	2b01      	cmp	r3, #1
 8002dbe:	d118      	bne.n	8002df2 <UART_EndRxTransfer+0xa6>
 8002dc0:	f3ef 8310 	mrs	r3, PRIMASK
 8002dc4:	60bb      	str	r3, [r7, #8]
 8002dc6:	68bb      	ldr	r3, [r7, #8]
 8002dc8:	62fb      	str	r3, [r7, #44]	@ 0x2c
 8002dca:	2301      	movs	r3, #1
 8002dcc:	60fb      	str	r3, [r7, #12]
 8002dce:	68fb      	ldr	r3, [r7, #12]
 8002dd0:	f383 8810 	msr	PRIMASK, r3
 8002dd4:	46c0      	nop			@ (mov r8, r8)
 8002dd6:	687b      	ldr	r3, [r7, #4]
 8002dd8:	681b      	ldr	r3, [r3, #0]
 8002dda:	681a      	ldr	r2, [r3, #0]
 8002ddc:	687b      	ldr	r3, [r7, #4]
 8002dde:	681b      	ldr	r3, [r3, #0]
 8002de0:	2110      	movs	r1, #16
 8002de2:	438a      	bics	r2, r1
 8002de4:	601a      	str	r2, [r3, #0]
 8002de6:	6afb      	ldr	r3, [r7, #44]	@ 0x2c
 8002de8:	613b      	str	r3, [r7, #16]
 8002dea:	693b      	ldr	r3, [r7, #16]
 8002dec:	f383 8810 	msr	PRIMASK, r3
 8002df0:	46c0      	nop			@ (mov r8, r8)
 8002df2:	687b      	ldr	r3, [r7, #4]
 8002df4:	2280      	movs	r2, #128	@ 0x80
 8002df6:	2120      	movs	r1, #32
 8002df8:	5099      	str	r1, [r3, r2]
 8002dfa:	687b      	ldr	r3, [r7, #4]
 8002dfc:	2200      	movs	r2, #0
 8002dfe:	661a      	str	r2, [r3, #96]	@ 0x60
 8002e00:	687b      	ldr	r3, [r7, #4]
 8002e02:	2200      	movs	r2, #0
 8002e04:	669a      	str	r2, [r3, #104]	@ 0x68
 8002e06:	46c0      	nop			@ (mov r8, r8)
 8002e08:	46bd      	mov	sp, r7
 8002e0a:	b00e      	add	sp, #56	@ 0x38
 8002e0c:	bd80      	pop	{r7, pc}
 8002e0e:	46c0      	nop			@ (mov r8, r8)
 8002e10:	fffffedf 	.word	0xfffffedf

08002e14 <UART_DMAReceiveCplt>:
 8002e14:	b580      	push	{r7, lr}
 8002e16:	b094      	sub	sp, #80	@ 0x50
 8002e18:	af00      	add	r7, sp, #0
 8002e1a:	6078      	str	r0, [r7, #4]
 8002e1c:	687b      	ldr	r3, [r7, #4]
 8002e1e:	6a5b      	ldr	r3, [r3, #36]	@ 0x24
 8002e20:	64fb      	str	r3, [r7, #76]	@ 0x4c
 8002e22:	687b      	ldr	r3, [r7, #4]
 8002e24:	699b      	ldr	r3, [r3, #24]
 8002e26:	2b20      	cmp	r3, #32
 8002e28:	d06f      	beq.n	8002f0a <UART_DMAReceiveCplt+0xf6>
 8002e2a:	6cfb      	ldr	r3, [r7, #76]	@ 0x4c
 8002e2c:	225a      	movs	r2, #90	@ 0x5a
 8002e2e:	2100      	movs	r1, #0
 8002e30:	5299      	strh	r1, [r3, r2]
 8002e32:	f3ef 8310 	mrs	r3, PRIMASK
 8002e36:	61bb      	str	r3, [r7, #24]
 8002e38:	69bb      	ldr	r3, [r7, #24]
 8002e3a:	64bb      	str	r3, [r7, #72]	@ 0x48
 8002e3c:	2301      	movs	r3, #1
 8002e3e:	61fb      	str	r3, [r7, #28]
 8002e40:	69fb      	ldr	r3, [r7, #28]
 8002e42:	f383 8810 	msr	PRIMASK, r3
 8002e46:	46c0      	nop			@ (mov r8, r8)
 8002e48:	6cfb      	ldr	r3, [r7, #76]	@ 0x4c
 8002e4a:	681b      	ldr	r3, [r3, #0]
 8002e4c:	681a      	ldr	r2, [r3, #0]
 8002e4e:	6cfb      	ldr	r3, [r7, #76]	@ 0x4c
 8002e50:	681b      	ldr	r3, [r3, #0]
 8002e52:	493a      	ldr	r1, [pc, #232]	@ (8002f3c <UART_DMAReceiveCplt+0x128>)
 8002e54:	400a      	ands	r2, r1
 8002e56:	601a      	str	r2, [r3, #0]
 8002e58:	6cbb      	ldr	r3, [r7, #72]	@ 0x48
 8002e5a:	623b      	str	r3, [r7, #32]
 8002e5c:	6a3b      	ldr	r3, [r7, #32]
 8002e5e:	f383 8810 	msr	PRIMASK, r3
 8002e62:	46c0      	nop			@ (mov r8, r8)
 8002e64:	f3ef 8310 	mrs	r3, PRIMASK
 8002e68:	627b      	str	r3, [r7, #36]	@ 0x24
 8002e6a:	6a7b      	ldr	r3, [r7, #36]	@ 0x24
 8002e6c:	647b      	str	r3, [r7, #68]	@ 0x44
 8002e6e:	2301      	movs	r3, #1
 8002e70:	62bb      	str	r3, [r7, #40]	@ 0x28
 8002e72:	6abb      	ldr	r3, [r7, #40]	@ 0x28
 8002e74:	f383 8810 	msr	PRIMASK, r3
 8002e78:	46c0      	nop			@ (mov r8, r8)
 8002e7a:	6cfb      	ldr	r3, [r7, #76]	@ 0x4c
 8002e7c:	681b      	ldr	r3, [r3, #0]
 8002e7e:	689a      	ldr	r2, [r3, #8]
 8002e80:	6cfb      	ldr	r3, [r7, #76]	@ 0x4c
 8002e82:	681b      	ldr	r3, [r3, #0]
 8002e84:	2101      	movs	r1, #1
 8002e86:	438a      	bics	r2, r1
 8002e88:	609a      	str	r2, [r3, #8]
 8002e8a:	6c7b      	ldr	r3, [r7, #68]	@ 0x44
 8002e8c:	62fb      	str	r3, [r7, #44]	@ 0x2c
 8002e8e:	6afb      	ldr	r3, [r7, #44]	@ 0x2c
 8002e90:	f383 8810 	msr	PRIMASK, r3
 8002e94:	46c0      	nop			@ (mov r8, r8)
 8002e96:	f3ef 8310 	mrs	r3, PRIMASK
 8002e9a:	633b      	str	r3, [r7, #48]	@ 0x30
 8002e9c:	6b3b      	ldr	r3, [r7, #48]	@ 0x30
 8002e9e:	643b      	str	r3, [r7, #64]	@ 0x40
 8002ea0:	2301      	movs	r3, #1
 8002ea2:	637b      	str	r3, [r7, #52]	@ 0x34
 8002ea4:	6b7b      	ldr	r3, [r7, #52]	@ 0x34
 8002ea6:	f383 8810 	msr	PRIMASK, r3
 8002eaa:	46c0      	nop			@ (mov r8, r8)
 8002eac:	6cfb      	ldr	r3, [r7, #76]	@ 0x4c
 8002eae:	681b      	ldr	r3, [r3, #0]
 8002eb0:	689a      	ldr	r2, [r3, #8]
 8002eb2:	6cfb      	ldr	r3, [r7, #76]	@ 0x4c
 8002eb4:	681b      	ldr	r3, [r3, #0]
 8002eb6:	2140      	movs	r1, #64	@ 0x40
 8002eb8:	438a      	bics	r2, r1
 8002eba:	609a      	str	r2, [r3, #8]
 8002ebc:	6c3b      	ldr	r3, [r7, #64]	@ 0x40
 8002ebe:	63bb      	str	r3, [r7, #56]	@ 0x38
 8002ec0:	6bbb      	ldr	r3, [r7, #56]	@ 0x38
 8002ec2:	f383 8810 	msr	PRIMASK, r3
 8002ec6:	46c0      	nop			@ (mov r8, r8)
 8002ec8:	6cfb      	ldr	r3, [r7, #76]	@ 0x4c
 8002eca:	2280      	movs	r2, #128	@ 0x80
 8002ecc:	2120      	movs	r1, #32
 8002ece:	5099      	str	r1, [r3, r2]
 8002ed0:	6cfb      	ldr	r3, [r7, #76]	@ 0x4c
 8002ed2:	6e1b      	ldr	r3, [r3, #96]	@ 0x60
 8002ed4:	2b01      	cmp	r3, #1
 8002ed6:	d118      	bne.n	8002f0a <UART_DMAReceiveCplt+0xf6>
 8002ed8:	f3ef 8310 	mrs	r3, PRIMASK
 8002edc:	60fb      	str	r3, [r7, #12]
 8002ede:	68fb      	ldr	r3, [r7, #12]
 8002ee0:	63fb      	str	r3, [r7, #60]	@ 0x3c
 8002ee2:	2301      	movs	r3, #1
 8002ee4:	613b      	str	r3, [r7, #16]
 8002ee6:	693b      	ldr	r3, [r7, #16]
 8002ee8:	f383 8810 	msr	PRIMASK, r3
 8002eec:	46c0      	nop			@ (mov r8, r8)
 8002eee:	6cfb      	ldr	r3, [r7, #76]	@ 0x4c
 8002ef0:	681b      	ldr	r3, [r3, #0]
 8002ef2:	681a      	ldr	r2, [r3, #0]
 8002ef4:	6cfb      	ldr	r3, [r7, #76]	@ 0x4c
 8002ef6:	681b      	ldr	r3, [r3, #0]
 8002ef8:	2110      	movs	r1, #16
 8002efa:	438a      	bics	r2, r1
 8002efc:	601a      	str	r2, [r3, #0]
 8002efe:	6bfb      	ldr	r3, [r7, #60]	@ 0x3c
 8002f00:	617b      	str	r3, [r7, #20]
 8002f02:	697b      	ldr	r3, [r7, #20]
 8002f04:	f383 8810 	msr	PRIMASK, r3
 8002f08:	46c0      	nop			@ (mov r8, r8)
 8002f0a:	6cfb      	ldr	r3, [r7, #76]	@ 0x4c
 8002f0c:	2200      	movs	r2, #0
 8002f0e:	665a      	str	r2, [r3, #100]	@ 0x64
 8002f10:	6cfb      	ldr	r3, [r7, #76]	@ 0x4c
 8002f12:	6e1b      	ldr	r3, [r3, #96]	@ 0x60
 8002f14:	2b01      	cmp	r3, #1
 8002f16:	d108      	bne.n	8002f2a <UART_DMAReceiveCplt+0x116>
 8002f18:	6cfb      	ldr	r3, [r7, #76]	@ 0x4c
 8002f1a:	2258      	movs	r2, #88	@ 0x58
 8002f1c:	5a9a      	ldrh	r2, [r3, r2]
 8002f1e:	6cfb      	ldr	r3, [r7, #76]	@ 0x4c
 8002f20:	0011      	movs	r1, r2
 8002f22:	0018      	movs	r0, r3
 8002f24:	f7ff fb36 	bl	8002594 <HAL_UARTEx_RxEventCallback>
 8002f28:	e003      	b.n	8002f32 <UART_DMAReceiveCplt+0x11e>
 8002f2a:	6cfb      	ldr	r3, [r7, #76]	@ 0x4c
 8002f2c:	0018      	movs	r0, r3
 8002f2e:	f7fd fa95 	bl	800045c <HAL_UART_RxCpltCallback>
 8002f32:	46c0      	nop			@ (mov r8, r8)
 8002f34:	46bd      	mov	sp, r7
 8002f36:	b014      	add	sp, #80	@ 0x50
 8002f38:	bd80      	pop	{r7, pc}
 8002f3a:	46c0      	nop			@ (mov r8, r8)
 8002f3c:	fffffeff 	.word	0xfffffeff

08002f40 <UART_DMARxHalfCplt>:
 8002f40:	b580      	push	{r7, lr}
 8002f42:	b084      	sub	sp, #16
 8002f44:	af00      	add	r7, sp, #0
 8002f46:	6078      	str	r0, [r7, #4]
 8002f48:	687b      	ldr	r3, [r7, #4]
 8002f4a:	6a5b      	ldr	r3, [r3, #36]	@ 0x24
 8002f4c:	60fb      	str	r3, [r7, #12]
 8002f4e:	68fb      	ldr	r3, [r7, #12]
 8002f50:	2201      	movs	r2, #1
 8002f52:	665a      	str	r2, [r3, #100]	@ 0x64
 8002f54:	68fb      	ldr	r3, [r7, #12]
 8002f56:	6e1b      	ldr	r3, [r3, #96]	@ 0x60
 8002f58:	2b01      	cmp	r3, #1
 8002f5a:	d10a      	bne.n	8002f72 <UART_DMARxHalfCplt+0x32>
 8002f5c:	68fb      	ldr	r3, [r7, #12]
 8002f5e:	2258      	movs	r2, #88	@ 0x58
 8002f60:	5a9b      	ldrh	r3, [r3, r2]
 8002f62:	085b      	lsrs	r3, r3, #1
 8002f64:	b29a      	uxth	r2, r3
 8002f66:	68fb      	ldr	r3, [r7, #12]
 8002f68:	0011      	movs	r1, r2
 8002f6a:	0018      	movs	r0, r3
 8002f6c:	f7ff fb12 	bl	8002594 <HAL_UARTEx_RxEventCallback>
 8002f70:	e003      	b.n	8002f7a <UART_DMARxHalfCplt+0x3a>
 8002f72:	68fb      	ldr	r3, [r7, #12]
 8002f74:	0018      	movs	r0, r3
 8002f76:	f7ff fafd 	bl	8002574 <HAL_UART_RxHalfCpltCallback>
 8002f7a:	46c0      	nop			@ (mov r8, r8)
 8002f7c:	46bd      	mov	sp, r7
 8002f7e:	b004      	add	sp, #16
 8002f80:	bd80      	pop	{r7, pc}

08002f82 <UART_DMAError>:
 8002f82:	b580      	push	{r7, lr}
 8002f84:	b086      	sub	sp, #24
 8002f86:	af00      	add	r7, sp, #0
 8002f88:	6078      	str	r0, [r7, #4]
 8002f8a:	687b      	ldr	r3, [r7, #4]
 8002f8c:	6a5b      	ldr	r3, [r3, #36]	@ 0x24
 8002f8e:	617b      	str	r3, [r7, #20]
 8002f90:	697b      	ldr	r3, [r7, #20]
 8002f92:	6fdb      	ldr	r3, [r3, #124]	@ 0x7c
 8002f94:	613b      	str	r3, [r7, #16]
 8002f96:	697b      	ldr	r3, [r7, #20]
 8002f98:	2280      	movs	r2, #128	@ 0x80
 8002f9a:	589b      	ldr	r3, [r3, r2]
 8002f9c:	60fb      	str	r3, [r7, #12]
 8002f9e:	697b      	ldr	r3, [r7, #20]
 8002fa0:	681b      	ldr	r3, [r3, #0]
 8002fa2:	689b      	ldr	r3, [r3, #8]
 8002fa4:	2280      	movs	r2, #128	@ 0x80
 8002fa6:	4013      	ands	r3, r2
 8002fa8:	2b80      	cmp	r3, #128	@ 0x80
 8002faa:	d10a      	bne.n	8002fc2 <UART_DMAError+0x40>
 8002fac:	693b      	ldr	r3, [r7, #16]
 8002fae:	2b21      	cmp	r3, #33	@ 0x21
 8002fb0:	d107      	bne.n	8002fc2 <UART_DMAError+0x40>
 8002fb2:	697b      	ldr	r3, [r7, #20]
 8002fb4:	2252      	movs	r2, #82	@ 0x52
 8002fb6:	2100      	movs	r1, #0
 8002fb8:	5299      	strh	r1, [r3, r2]
 8002fba:	697b      	ldr	r3, [r7, #20]
 8002fbc:	0018      	movs	r0, r3
 8002fbe:	f7ff fea1 	bl	8002d04 <UART_EndTxTransfer>
 8002fc2:	697b      	ldr	r3, [r7, #20]
 8002fc4:	681b      	ldr	r3, [r3, #0]
 8002fc6:	689b      	ldr	r3, [r3, #8]
 8002fc8:	2240      	movs	r2, #64	@ 0x40
 8002fca:	4013      	ands	r3, r2
 8002fcc:	2b40      	cmp	r3, #64	@ 0x40
 8002fce:	d10a      	bne.n	8002fe6 <UART_DMAError+0x64>
 8002fd0:	68fb      	ldr	r3, [r7, #12]
 8002fd2:	2b22      	cmp	r3, #34	@ 0x22
 8002fd4:	d107      	bne.n	8002fe6 <UART_DMAError+0x64>
 8002fd6:	697b      	ldr	r3, [r7, #20]
 8002fd8:	225a      	movs	r2, #90	@ 0x5a
 8002fda:	2100      	movs	r1, #0
 8002fdc:	5299      	strh	r1, [r3, r2]
 8002fde:	697b      	ldr	r3, [r7, #20]
 8002fe0:	0018      	movs	r0, r3
 8002fe2:	f7ff feb3 	bl	8002d4c <UART_EndRxTransfer>
 8002fe6:	697b      	ldr	r3, [r7, #20]
 8002fe8:	2284      	movs	r2, #132	@ 0x84
 8002fea:	589b      	ldr	r3, [r3, r2]
 8002fec:	2210      	movs	r2, #16
 8002fee:	431a      	orrs	r2, r3
 8002ff0:	697b      	ldr	r3, [r7, #20]
 8002ff2:	2184      	movs	r1, #132	@ 0x84
 8002ff4:	505a      	str	r2, [r3, r1]
 8002ff6:	697b      	ldr	r3, [r7, #20]
 8002ff8:	0018      	movs	r0, r3
 8002ffa:	f7ff fac3 	bl	8002584 <HAL_UART_ErrorCallback>
 8002ffe:	46c0      	nop			@ (mov r8, r8)
 8003000:	46bd      	mov	sp, r7
 8003002:	b006      	add	sp, #24
 8003004:	bd80      	pop	{r7, pc}

08003006 <UART_DMAAbortOnError>:
 8003006:	b580      	push	{r7, lr}
 8003008:	b084      	sub	sp, #16
 800300a:	af00      	add	r7, sp, #0
 800300c:	6078      	str	r0, [r7, #4]
 800300e:	687b      	ldr	r3, [r7, #4]
 8003010:	6a5b      	ldr	r3, [r3, #36]	@ 0x24
 8003012:	60fb      	str	r3, [r7, #12]
 8003014:	68fb      	ldr	r3, [r7, #12]
 8003016:	225a      	movs	r2, #90	@ 0x5a
 8003018:	2100      	movs	r1, #0
 800301a:	5299      	strh	r1, [r3, r2]
 800301c:	68fb      	ldr	r3, [r7, #12]
 800301e:	2252      	movs	r2, #82	@ 0x52
 8003020:	2100      	movs	r1, #0
 8003022:	5299      	strh	r1, [r3, r2]
 8003024:	68fb      	ldr	r3, [r7, #12]
 8003026:	0018      	movs	r0, r3
 8003028:	f7ff faac 	bl	8002584 <HAL_UART_ErrorCallback>
 800302c:	46c0      	nop			@ (mov r8, r8)
 800302e:	46bd      	mov	sp, r7
 8003030:	b004      	add	sp, #16
 8003032:	bd80      	pop	{r7, pc}

08003034 <UART_EndTransmit_IT>:
 8003034:	b580      	push	{r7, lr}
 8003036:	b086      	sub	sp, #24
 8003038:	af00      	add	r7, sp, #0
 800303a:	6078      	str	r0, [r7, #4]
 800303c:	f3ef 8310 	mrs	r3, PRIMASK
 8003040:	60bb      	str	r3, [r7, #8]
 8003042:	68bb      	ldr	r3, [r7, #8]
 8003044:	617b      	str	r3, [r7, #20]
 8003046:	2301      	movs	r3, #1
 8003048:	60fb      	str	r3, [r7, #12]
 800304a:	68fb      	ldr	r3, [r7, #12]
 800304c:	f383 8810 	msr	PRIMASK, r3
 8003050:	46c0      	nop			@ (mov r8, r8)
 8003052:	687b      	ldr	r3, [r7, #4]
 8003054:	681b      	ldr	r3, [r3, #0]
 8003056:	681a      	ldr	r2, [r3, #0]
 8003058:	687b      	ldr	r3, [r7, #4]
 800305a:	681b      	ldr	r3, [r3, #0]
 800305c:	2140      	movs	r1, #64	@ 0x40
 800305e:	438a      	bics	r2, r1
 8003060:	601a      	str	r2, [r3, #0]
 8003062:	697b      	ldr	r3, [r7, #20]
 8003064:	613b      	str	r3, [r7, #16]
 8003066:	693b      	ldr	r3, [r7, #16]
 8003068:	f383 8810 	msr	PRIMASK, r3
 800306c:	46c0      	nop			@ (mov r8, r8)
 800306e:	687b      	ldr	r3, [r7, #4]
 8003070:	2220      	movs	r2, #32
 8003072:	67da      	str	r2, [r3, #124]	@ 0x7c
 8003074:	687b      	ldr	r3, [r7, #4]
 8003076:	2200      	movs	r2, #0
 8003078:	66da      	str	r2, [r3, #108]	@ 0x6c
 800307a:	687b      	ldr	r3, [r7, #4]
 800307c:	0018      	movs	r0, r3
 800307e:	f7ff fa71 	bl	8002564 <HAL_UART_TxCpltCallback>
 8003082:	46c0      	nop			@ (mov r8, r8)
 8003084:	46bd      	mov	sp, r7
 8003086:	b006      	add	sp, #24
 8003088:	bd80      	pop	{r7, pc}

0800308a <HAL_UARTEx_WakeupCallback>:
 800308a:	b580      	push	{r7, lr}
 800308c:	b082      	sub	sp, #8
 800308e:	af00      	add	r7, sp, #0
 8003090:	6078      	str	r0, [r7, #4]
 8003092:	46c0      	nop			@ (mov r8, r8)
 8003094:	46bd      	mov	sp, r7
 8003096:	b002      	add	sp, #8
 8003098:	bd80      	pop	{r7, pc}

0800309a <memset>:
 800309a:	0003      	movs	r3, r0
 800309c:	1882      	adds	r2, r0, r2
 800309e:	4293      	cmp	r3, r2
 80030a0:	d100      	bne.n	80030a4 <memset+0xa>
 80030a2:	4770      	bx	lr
 80030a4:	7019      	strb	r1, [r3, #0]
 80030a6:	3301      	adds	r3, #1
 80030a8:	e7f9      	b.n	800309e <memset+0x4>
	...

080030ac <__libc_init_array>:
 80030ac:	b570      	push	{r4, r5, r6, lr}
 80030ae:	2600      	movs	r6, #0
 80030b0:	4c0c      	ldr	r4, [pc, #48]	@ (80030e4 <__libc_init_array+0x38>)
 80030b2:	4d0d      	ldr	r5, [pc, #52]	@ (80030e8 <__libc_init_array+0x3c>)
 80030b4:	1b64      	subs	r4, r4, r5
 80030b6:	10a4      	asrs	r4, r4, #2
 80030b8:	42a6      	cmp	r6, r4
 80030ba:	d109      	bne.n	80030d0 <__libc_init_array+0x24>
 80030bc:	2600      	movs	r6, #0
 80030be:	f000 f823 	bl	8003108 <_init>
 80030c2:	4c0a      	ldr	r4, [pc, #40]	@ (80030ec <__libc_init_array+0x40>)
 80030c4:	4d0a      	ldr	r5, [pc, #40]	@ (80030f0 <__libc_init_array+0x44>)
 80030c6:	1b64      	subs	r4, r4, r5
 80030c8:	10a4      	asrs	r4, r4, #2
 80030ca:	42a6      	cmp	r6, r4
 80030cc:	d105      	bne.n	80030da <__libc_init_array+0x2e>
 80030ce:	bd70      	pop	{r4, r5, r6, pc}
 80030d0:	00b3      	lsls	r3, r6, #2
 80030d2:	58eb      	ldr	r3, [r5, r3]
 80030d4:	4798      	blx	r3
 80030d6:	3601      	adds	r6, #1
 80030d8:	e7ee      	b.n	80030b8 <__libc_init_array+0xc>
 80030da:	00b3      	lsls	r3, r6, #2
 80030dc:	58eb      	ldr	r3, [r5, r3]
 80030de:	4798      	blx	r3
 80030e0:	3601      	adds	r6, #1
 80030e2:	e7f2      	b.n	80030ca <__libc_init_array+0x1e>
 80030e4:	08003158 	.word	0x08003158
 80030e8:	08003158 	.word	0x08003158
 80030ec:	0800315c 	.word	0x0800315c
 80030f0:	08003158 	.word	0x08003158

080030f4 <memcpy>:
 80030f4:	2300      	movs	r3, #0
 80030f6:	b510      	push	{r4, lr}
 80030f8:	429a      	cmp	r2, r3
 80030fa:	d100      	bne.n	80030fe <memcpy+0xa>
 80030fc:	bd10      	pop	{r4, pc}
 80030fe:	5ccc      	ldrb	r4, [r1, r3]
 8003100:	54c4      	strb	r4, [r0, r3]
 8003102:	3301      	adds	r3, #1
 8003104:	e7f8      	b.n	80030f8 <memcpy+0x4>
	...

08003108 <_init>:
 8003108:	b5f8      	push	{r3, r4, r5, r6, r7, lr}
 800310a:	46c0      	nop			@ (mov r8, r8)
 800310c:	bcf8      	pop	{r3, r4, r5, r6, r7}
 800310e:	bc08      	pop	{r3}
 8003110:	469e      	mov	lr, r3
 8003112:	4770      	bx	lr

08003114 <_fini>:
 8003114:	b5f8      	push	{r3, r4, r5, r6, r7, lr}
 8003116:	46c0      	nop			@ (mov r8, r8)
 8003118:	bcf8      	pop	{r3, r4, r5, r6, r7}
 800311a:	bc08      	pop	{r3}
 800311c:	469e      	mov	lr, r3
 800311e:	4770      	bx	lr
